ARM GAS  /tmp/ccm4IIvO.s 			page 1


   1              		.cpu cortex-m0
   2              		.eabi_attribute 20, 1
   3              		.eabi_attribute 21, 1
   4              		.eabi_attribute 23, 3
   5              		.eabi_attribute 24, 1
   6              		.eabi_attribute 25, 1
   7              		.eabi_attribute 26, 1
   8              		.eabi_attribute 30, 4
   9              		.eabi_attribute 34, 0
  10              		.eabi_attribute 18, 4
  11              		.file	"main.cpp"
  12              		.text
  13              	.Ltext0:
  14              		.cfi_sections	.debug_frame
  15              		.section	.text._ZN5Timer6notifyEv,"axG",%progbits,_ZN5Timer6notifyEv,comdat
  16              		.align	1
  17              		.weak	_ZN5Timer6notifyEv
  18              		.arch armv6s-m
  19              		.syntax unified
  20              		.code	16
  21              		.thumb_func
  22              		.fpu softvfp
  24              	_ZN5Timer6notifyEv:
  25              	.LVL0:
  26              	.LFB3600:
  27              		.file 1 "../mculib3/src/timers.h"
   1:../mculib3/src/timers.h **** #pragma once
   2:../mculib3/src/timers.h **** 
   3:../mculib3/src/timers.h **** #include <cstdint>
   4:../mculib3/src/timers.h **** #include "subscriber.h"
   5:../mculib3/src/timers.h **** #include "systick.h"
   6:../mculib3/src/timers.h **** #include "literals.h"
   7:../mculib3/src/timers.h **** #include "function.h"
   8:../mculib3/src/timers.h **** #ifdef USE_MOCK_SYSTICK
   9:../mculib3/src/timers.h **** using mock::SysTick;
  10:../mculib3/src/timers.h **** #else
  11:../mculib3/src/timers.h **** using mcu::SysTick;
  12:../mculib3/src/timers.h **** #endif
  13:../mculib3/src/timers.h **** 
  14:../mculib3/src/timers.h **** 
  15:../mculib3/src/timers.h **** 
  16:../mculib3/src/timers.h **** enum Faster {
  17:../mculib3/src/timers.h ****      x2 = 2, x4 = 4, x5 = 5, x8 = 8, x10 = 10,
  18:../mculib3/src/timers.h **** };
  19:../mculib3/src/timers.h **** 
  20:../mculib3/src/timers.h **** 
  21:../mculib3/src/timers.h **** struct TickUpdater : Publisher
  22:../mculib3/src/timers.h **** {
  23:../mculib3/src/timers.h ****     TickUpdater() { REF(SysTick).initInterrupt<1000_us>(); }
  24:../mculib3/src/timers.h ****     template<Faster multiplier> // multiplier how many subticks in tick
  25:../mculib3/src/timers.h ****     void subscribe_subtick (Subscriber& v);
  26:../mculib3/src/timers.h ****     void interrupt();
  27:../mculib3/src/timers.h **** 
  28:../mculib3/src/timers.h **** 
  29:../mculib3/src/timers.h **** private:
  30:../mculib3/src/timers.h ****     struct Subtick : Publisher {} subtick {};
  31:../mculib3/src/timers.h ****     size_t subtick_cnt {0};
ARM GAS  /tmp/ccm4IIvO.s 			page 2


  32:../mculib3/src/timers.h ****     size_t subtick_qty {1};
  33:../mculib3/src/timers.h **** } tickUpdater{};
  34:../mculib3/src/timers.h **** 
  35:../mculib3/src/timers.h **** 
  36:../mculib3/src/timers.h **** 
  37:../mculib3/src/timers.h **** extern "C" void SysTick_Handler()
  38:../mculib3/src/timers.h **** {
  39:../mculib3/src/timers.h ****     tickUpdater.interrupt();
  40:../mculib3/src/timers.h **** }
  41:../mculib3/src/timers.h **** 
  42:../mculib3/src/timers.h **** 
  43:../mculib3/src/timers.h **** 
  44:../mculib3/src/timers.h **** class TickSubscriber : Subscriber
  45:../mculib3/src/timers.h **** {
  46:../mculib3/src/timers.h **** protected:
  47:../mculib3/src/timers.h ****     bool subscribed {false};
  48:../mculib3/src/timers.h ****     void tick_subscribe();
  49:../mculib3/src/timers.h ****     void tick_unsubscribe();
  50:../mculib3/src/timers.h ****     template<Faster multiplier> // multiplier how many subticks in tick
  51:../mculib3/src/timers.h ****     void tick_subscribe();
  52:../mculib3/src/timers.h **** };
  53:../mculib3/src/timers.h **** 
  54:../mculib3/src/timers.h **** 
  55:../mculib3/src/timers.h **** 
  56:../mculib3/src/timers.h **** class Timer : TickSubscriber
  57:../mculib3/src/timers.h **** {
  58:../mculib3/src/timers.h **** public:
  59:../mculib3/src/timers.h ****     Timer() = default;
  60:../mculib3/src/timers.h ****     Timer (uint32_t ms) { start(ms); }
  61:../mculib3/src/timers.h ****     ~Timer () {tick_unsubscribe();}
  62:../mculib3/src/timers.h **** 
  63:../mculib3/src/timers.h ****     void     start   (uint32_t ms); /// –∑–∞–ø—É—Å–∫–∞–µ—Ç —Å—á—ë—Ç —Å —Ç–µ–∫—É—â–µ–≥–æ –∑–Ω–∞—á–µ–
  64:../mculib3/src/timers.h ****     bool     event();   /// –≤–æ–∑–≤—Ä–∞—â–∞–µ—Ç true, –µ—Å–ª–∏ —Ç–∞–π–º–µ—Ä –Ω–∞—Ç–∏–∫–∞–ª –∏ –ø–µ
  65:../mculib3/src/timers.h ****     bool     done();    /// –≤–æ–∑–≤—Ä–∞—â–∞–µ—Ç true, –µ—Å–ª–∏ —Ç–∞–π–º–µ—Ä –Ω–∞—Ç–∏–∫–∞–ª –∏ –ù–ï
  66:../mculib3/src/timers.h ****     void     pause();   /// –æ—Å—Ç–∞–Ω–∞–≤–ª–∏–≤–∞–µ—Ç —Å—á—ë—Ç, –Ω–æ –Ω–µ —Å–±—Ä–∞—Å—ã–≤–∞–µ—Ç —Å—
  67:../mculib3/src/timers.h ****     void     start();   /// –∑–∞–ø—É—Å–∫–∞–µ—Ç —Å—á—ë—Ç —Å —Ç–µ–∫—É—â–µ–≥–æ –∑–Ω–∞—á–µ–Ω–∏—è —Å—á—ë
  68:../mculib3/src/timers.h ****     void     stop();    /// –æ—Å—Ç–∞–Ω–∞–≤–ª–∏–≤–∞–µ—Ç —Å—á—ë—Ç –∏ —Å–±—Ä–∞—Å—ã–≤–∞–µ—Ç —Å—á—ë—Ç—á–
  69:../mculib3/src/timers.h ****     bool     isGreater (uint32_t val); /// –≤–æ–∑–≤—Ä–∞—â–∞–µ—Ç true, –µ—Å–ª–∏ —Å—á—ë—Ç—á–∏–∫ –Ω–∞—
  70:../mculib3/src/timers.h ****     bool     isCount(); /// –≤–æ–∑–≤—Ä–∞—â–∞–µ—Ç true –µ—Å–ª–∏ —Å—á–∏—Ç–∞–µ—Ç, –Ω–æ –Ω–µ –¥–æ—Å—á–∏
  71:../mculib3/src/timers.h ****     uint32_t timePassed(); /// –≤–æ–∑–≤—Ä–∞—â–∞–µ—Ç —Å–∫–æ–ª—å–∫–æ –Ω–∞—Ç–∏–∫–∞–ª
  72:../mculib3/src/timers.h ****     uint32_t timeLeft();   /// –≤–æ–∑–≤—Ä–∞—â–∞–µ—Ç —Å–∫–æ–ª—å–∫–æ –æ—Å—Ç–∞–ª–æ—Å—å
  73:../mculib3/src/timers.h ****     template<class function>
  74:../mculib3/src/timers.h ****     void     event (function); /// –≤—ã–ø–æ–ª–Ω—è–µ—Ç function, –∫–æ–≥–¥–∞ –¥–æ—Ç–∏–∫–∞–ª –∏ –ø–µ—Ä
  75:../mculib3/src/timers.h ****     volatile uint32_t timeSet {0};
  76:../mculib3/src/timers.h **** 
  77:../mculib3/src/timers.h **** 
  78:../mculib3/src/timers.h **** private:
  79:../mculib3/src/timers.h ****     volatile uint32_t timePassed_ {0};	
  80:../mculib3/src/timers.h **** 
  81:../mculib3/src/timers.h ****     void notify() override { timePassed_++; }
  28              		.loc 1 81 10 view -0
  29              		.cfi_startproc
  30              		@ args = 0, pretend = 0, frame = 0
  31              		@ frame_needed = 0, uses_anonymous_args = 0
  32              		@ link register save eliminated.
  33              		.loc 1 81 30 view .LVU1
  34 0000 4369     		ldr	r3, [r0, #20]
ARM GAS  /tmp/ccm4IIvO.s 			page 3


  35              		.loc 1 81 45 is_stmt 0 view .LVU2
  36              		@ sp needed
  37              		.loc 1 81 41 view .LVU3
  38 0002 0133     		adds	r3, r3, #1
  39 0004 4361     		str	r3, [r0, #20]
  40              		.loc 1 81 45 view .LVU4
  41 0006 7047     		bx	lr
  42              		.cfi_endproc
  43              	.LFE3600:
  45              		.section	.text._ZN11ADC_average9interruptEv,"ax",%progbits
  46              		.align	1
  47              		.global	_ZN11ADC_average9interruptEv
  48              		.syntax unified
  49              		.code	16
  50              		.thumb_func
  51              		.fpu softvfp
  53              	_ZN11ADC_average9interruptEv:
  54              	.LVL1:
  55              	.LFB4063:
  56              		.file 2 "../mculib3/src/adc.h"
   1:../mculib3/src/adc.h **** #pragma once
   2:../mculib3/src/adc.h **** 
   3:../mculib3/src/adc.h **** #include "periph_adc.h"
   4:../mculib3/src/adc.h **** #include "periph_dma.h"
   5:../mculib3/src/adc.h **** #include "periph_rcc.h"
   6:../mculib3/src/adc.h **** #include "pin.h"
   7:../mculib3/src/adc.h **** #include "list.h"
   8:../mculib3/src/adc.h **** #include "dynarray.h"
   9:../mculib3/src/adc.h **** #include "function.h"
  10:../mculib3/src/adc.h **** #include "interrupt.h"
  11:../mculib3/src/adc.h **** #include <algorithm>
  12:../mculib3/src/adc.h **** 
  13:../mculib3/src/adc.h **** #if defined(USE_MOCK_ADC)
  14:../mculib3/src/adc.h **** using ADC = mock::ADC;
  15:../mculib3/src/adc.h **** #else
  16:../mculib3/src/adc.h **** using ADC = mcu::ADC;
  17:../mculib3/src/adc.h **** #endif
  18:../mculib3/src/adc.h **** #if defined (STM32F4)
  19:../mculib3/src/adc.h **** #if defined(USE_MOCK_ADCC)
  20:../mculib3/src/adc.h **** using ADCC = mock::ADCC;
  21:../mculib3/src/adc.h **** #else
  22:../mculib3/src/adc.h **** using ADCC = mcu::ADCC;
  23:../mculib3/src/adc.h **** #endif
  24:../mculib3/src/adc.h **** #endif
  25:../mculib3/src/adc.h **** 
  26:../mculib3/src/adc.h **** #if defined(USE_MOCK_DMA)
  27:../mculib3/src/adc.h **** using DMA_stream = mock::DMA_stream;
  28:../mculib3/src/adc.h **** #else
  29:../mculib3/src/adc.h **** using DMA_stream = mcu::DMA_stream;
  30:../mculib3/src/adc.h **** #endif
  31:../mculib3/src/adc.h **** 
  32:../mculib3/src/adc.h **** struct ADC_average;
  33:../mculib3/src/adc.h **** 
  34:../mculib3/src/adc.h **** struct ADC_channel : Listable<ADC_channel> {
  35:../mculib3/src/adc.h ****     template<class Pin>
  36:../mculib3/src/adc.h ****     static ADC_channel& make();
  37:../mculib3/src/adc.h ****     operator const uint32_t() { return v; }
ARM GAS  /tmp/ccm4IIvO.s 			page 4


  38:../mculib3/src/adc.h ****     uint32_t operator=  (uint32_t v) { return this->v = v;  }
  39:../mculib3/src/adc.h ****     uint32_t operator+= (uint32_t v) { return this->v += v; }
  40:../mculib3/src/adc.h ****     friend ADC_average;
  41:../mculib3/src/adc.h **** private:
  42:../mculib3/src/adc.h ****     uint32_t v;
  43:../mculib3/src/adc.h ****     Pin& pin;
  44:../mculib3/src/adc.h ****     int channel {-1};
  45:../mculib3/src/adc.h ****     ADC_channel (Pin& pin) : pin{pin} {}
  46:../mculib3/src/adc.h ****     ADC_channel (const ADC_channel&) = delete;
  47:../mculib3/src/adc.h **** };
  48:../mculib3/src/adc.h **** 
  49:../mculib3/src/adc.h **** struct ADC_average : private List<ADC_channel>, Interrupting {
  50:../mculib3/src/adc.h ****     template<mcu::Periph, mcu::Periph ADCC = mcu::Periph::ADCC>
  51:../mculib3/src/adc.h ****     static ADC_average& make (size_t conversion_qty);
  52:../mculib3/src/adc.h ****     template<class Pin>
  53:../mculib3/src/adc.h ****     ADC_channel& add_channel();
  54:../mculib3/src/adc.h ****     template<class Function>
  55:../mculib3/src/adc.h ****     void set_callback (const Function& v) { callback = v; }
  56:../mculib3/src/adc.h ****     void start();
  57:../mculib3/src/adc.h ****     size_t buffer_address() const { return buffer.address(); }
  58:../mculib3/src/adc.h ****     void   reset_channels() { clear(); buffer.clear(); }
  59:../mculib3/src/adc.h **** private:
  60:../mculib3/src/adc.h ****     Dyn_array<uint16_t> buffer{};  // —Å—é–¥–∞ –¥–∞–Ω–Ω—ã–µ –ø–æ –¥–º–∞
  61:../mculib3/src/adc.h ****     const size_t        conversion_qty;
  62:../mculib3/src/adc.h ****     size_t order{0};
  63:../mculib3/src/adc.h ****     ADC&        adc;
  64:../mculib3/src/adc.h **** #if defined (STM32F4)
  65:../mculib3/src/adc.h ****     ADCC& adcc;
  66:../mculib3/src/adc.h **** #endif
  67:../mculib3/src/adc.h ****     DMA_stream& dma;
  68:../mculib3/src/adc.h ****     Interrupt& interrupt_;
  69:../mculib3/src/adc.h ****     const mcu::Periph adc_periph;
  70:../mculib3/src/adc.h ****     Callback<> callback {};
  71:../mculib3/src/adc.h ****     ADC_average (
  72:../mculib3/src/adc.h ****          size_t       conversion_qty
  73:../mculib3/src/adc.h ****         , ADC&        adc
  74:../mculib3/src/adc.h ****     #if defined (STM32F4)
  75:../mculib3/src/adc.h ****         , ADCC&       adcc
  76:../mculib3/src/adc.h ****     #endif   
  77:../mculib3/src/adc.h ****         , DMA_stream& dma
  78:../mculib3/src/adc.h ****         , Interrupt&  interrupt_
  79:../mculib3/src/adc.h ****         , mcu::Periph adc_periph
  80:../mculib3/src/adc.h ****         
  81:../mculib3/src/adc.h ****     ) : conversion_qty {conversion_qty}
  82:../mculib3/src/adc.h ****       , adc            {adc}
  83:../mculib3/src/adc.h ****     #if defined (STM32F4)
  84:../mculib3/src/adc.h ****       , adcc           {adcc}
  85:../mculib3/src/adc.h ****     #endif
  86:../mculib3/src/adc.h ****       , dma            {dma}
  87:../mculib3/src/adc.h ****       , interrupt_     {interrupt_}
  88:../mculib3/src/adc.h ****       , adc_periph     {adc_periph}
  89:../mculib3/src/adc.h ****     {
  90:../mculib3/src/adc.h ****         interrupt_.subscribe (this);
  91:../mculib3/src/adc.h ****     } 
  92:../mculib3/src/adc.h ****     ADC_average (const ADC_average&) = delete;
  93:../mculib3/src/adc.h ****     void interrupt() override;
  94:../mculib3/src/adc.h **** };
ARM GAS  /tmp/ccm4IIvO.s 			page 5


  95:../mculib3/src/adc.h **** 
  96:../mculib3/src/adc.h **** 
  97:../mculib3/src/adc.h **** 
  98:../mculib3/src/adc.h **** 
  99:../mculib3/src/adc.h **** 
 100:../mculib3/src/adc.h **** 
 101:../mculib3/src/adc.h **** 
 102:../mculib3/src/adc.h **** 
 103:../mculib3/src/adc.h **** 
 104:../mculib3/src/adc.h **** 
 105:../mculib3/src/adc.h **** 
 106:../mculib3/src/adc.h **** 
 107:../mculib3/src/adc.h **** 
 108:../mculib3/src/adc.h **** 
 109:../mculib3/src/adc.h **** 
 110:../mculib3/src/adc.h **** 
 111:../mculib3/src/adc.h **** 
 112:../mculib3/src/adc.h **** 
 113:../mculib3/src/adc.h **** 
 114:../mculib3/src/adc.h **** 
 115:../mculib3/src/adc.h **** 
 116:../mculib3/src/adc.h **** 
 117:../mculib3/src/adc.h **** 
 118:../mculib3/src/adc.h **** 
 119:../mculib3/src/adc.h **** template<class Pin_>
 120:../mculib3/src/adc.h **** ADC_channel& ADC_channel::make()
 121:../mculib3/src/adc.h **** {
 122:../mculib3/src/adc.h ****     static auto res = ADC_channel {Pin::make<Pin_,mcu::PinMode::Analog>()};
 123:../mculib3/src/adc.h ****     return res;
 124:../mculib3/src/adc.h **** }
 125:../mculib3/src/adc.h **** 
 126:../mculib3/src/adc.h **** 
 127:../mculib3/src/adc.h **** template<mcu::Periph ADC, mcu::Periph ADCC>
 128:../mculib3/src/adc.h **** ADC_average& ADC_average::make (size_t conversion_qty)
 129:../mculib3/src/adc.h **** {
 130:../mculib3/src/adc.h ****     auto constexpr dma_periph = mcu::ADC::default_dma<ADC>();
 131:../mculib3/src/adc.h ****     auto& interrupt = get_interrupt<dma_periph>();
 132:../mculib3/src/adc.h ****     static auto res = ADC_average {
 133:../mculib3/src/adc.h ****           conversion_qty
 134:../mculib3/src/adc.h ****         , mcu::make_reference<ADC>()
 135:../mculib3/src/adc.h ****     #if defined (STM32F4)
 136:../mculib3/src/adc.h ****         , mcu::make_reference<ADCC>()
 137:../mculib3/src/adc.h ****     #endif
 138:../mculib3/src/adc.h ****         , mcu::make_reference<dma_periph>()
 139:../mculib3/src/adc.h ****         , interrupt
 140:../mculib3/src/adc.h ****         , ADC
 141:../mculib3/src/adc.h ****     };
 142:../mculib3/src/adc.h ****     REF(RCC).clock_enable<ADC>();
 143:../mculib3/src/adc.h ****     res.adc.set (mcu::ADC::Resolution::_12_bit)
 144:../mculib3/src/adc.h ****            .set_continuous()
 145:../mculib3/src/adc.h ****            .dma_enable()
 146:../mculib3/src/adc.h ****            .set (mcu::ADC::DMA_mode::circular); // no choice yet
 147:../mculib3/src/adc.h **** #if defined (STM32F0)
 148:../mculib3/src/adc.h ****     res.adc.set (mcu::ADC::Clock::PCLKdiv4)      // no choice yet
 149:../mculib3/src/adc.h ****            .set (mcu::ADC::Sample_time::Default);// no choice yet
 150:../mculib3/src/adc.h **** #elif defined (STM32F4)
 151:../mculib3/src/adc.h ****     res.adcc.set(mcu::ADCC::Clock::PCLKdiv8);
ARM GAS  /tmp/ccm4IIvO.s 			page 6


 152:../mculib3/src/adc.h ****     res.adc.set_scan_mode();
 153:../mculib3/src/adc.h **** #endif
 154:../mculib3/src/adc.h ****     REF(RCC).clock_enable<dma_periph>();
 155:../mculib3/src/adc.h ****     auto periph_adr = size_t(&res.adc.data());
 156:../mculib3/src/adc.h ****     res.dma.set_periph_adr (periph_adr)
 157:../mculib3/src/adc.h ****            .set (mcu::DMA_stream::Direction::to_memory)
 158:../mculib3/src/adc.h ****            .size_memory (mcu::DMA_stream::DataSize::word16)
 159:../mculib3/src/adc.h ****            .size_periph (mcu::DMA_stream::DataSize::word16)
 160:../mculib3/src/adc.h ****            .inc_memory()
 161:../mculib3/src/adc.h ****            .enable_transfer_complete_interrupt()
 162:../mculib3/src/adc.h ****            .circular_mode();
 163:../mculib3/src/adc.h **** #if defined (STM32F4)
 164:../mculib3/src/adc.h ****     res.dma.circular_mode();
 165:../mculib3/src/adc.h ****     res.dma.set_channel(DMA_stream::select_channel<ADC>());
 166:../mculib3/src/adc.h **** #endif
 167:../mculib3/src/adc.h ****     res.interrupt_.enable();
 168:../mculib3/src/adc.h ****    
 169:../mculib3/src/adc.h ****     return res;
 170:../mculib3/src/adc.h **** }
 171:../mculib3/src/adc.h **** 
 172:../mculib3/src/adc.h **** template<class Pin>
 173:../mculib3/src/adc.h **** ADC_channel& ADC_average::add_channel()
 174:../mculib3/src/adc.h **** {
 175:../mculib3/src/adc.h ****     auto& value = ADC_channel::make<Pin>();
 176:../mculib3/src/adc.h ****     auto channel = adc.set_channel<Pin>(adc_periph);
 177:../mculib3/src/adc.h ****     value.channel = channel;
 178:../mculib3/src/adc.h **** #if defined (STM32F4)
 179:../mculib3/src/adc.h ****     adc.set(channel, mcu::ADC::Sample_time::_480CLK);
 180:../mculib3/src/adc.h ****     adc.set_regular_sequence_order(++order, channel);
 181:../mculib3/src/adc.h ****     adc.set_regular_sequence_length(order);
 182:../mculib3/src/adc.h **** #endif
 183:../mculib3/src/adc.h ****     // —á—Ç–æ–±—ã –∫–∞–Ω–∞–ª—ã —Ä–∞—Å–ø–æ–ª–∞–≥–∞–ª–∏—Å—å –≤ –ª–∏—Å—Ç–µ –≤ –ø–æ—Ä—è–¥–∫–µ, –∫–∞–∫ –
 184:../mculib3/src/adc.h ****     this->insert (
 185:../mculib3/src/adc.h ****         std::find_if (
 186:../mculib3/src/adc.h ****               this->begin()
 187:../mculib3/src/adc.h ****             , this->end()
 188:../mculib3/src/adc.h ****             , [=](auto& v){ return v.channel > channel; }
 189:../mculib3/src/adc.h ****         )
 190:../mculib3/src/adc.h ****         , value
 191:../mculib3/src/adc.h ****     );
 192:../mculib3/src/adc.h ****     buffer.add_size(conversion_qty);
 193:../mculib3/src/adc.h ****     this->dma.disable()
 194:../mculib3/src/adc.h ****          .set_memory_adr (buffer.address())
 195:../mculib3/src/adc.h ****          .set_qty_transactions (buffer.size())
 196:../mculib3/src/adc.h ****          .enable();
 197:../mculib3/src/adc.h **** 
 198:../mculib3/src/adc.h **** 
 199:../mculib3/src/adc.h ****     return value;
 200:../mculib3/src/adc.h **** }
 201:../mculib3/src/adc.h **** 
 202:../mculib3/src/adc.h **** 
 203:../mculib3/src/adc.h **** void ADC_average::start()
 204:../mculib3/src/adc.h **** {
 205:../mculib3/src/adc.h ****     dma.enable();
 206:../mculib3/src/adc.h **** #if defined (STM32F0)
 207:../mculib3/src/adc.h ****     // maybe need wrap in function
 208:../mculib3/src/adc.h ****     if (adc.is_ready())
ARM GAS  /tmp/ccm4IIvO.s 			page 7


 209:../mculib3/src/adc.h ****         adc.set_busy();
 210:../mculib3/src/adc.h ****     adc.enable();
 211:../mculib3/src/adc.h ****     while ( not adc.is_ready() ) { }
 212:../mculib3/src/adc.h **** #elif defined (STM32F4)
 213:../mculib3/src/adc.h ****     adc.enable();
 214:../mculib3/src/adc.h ****     while ( not adc.is_enable() ) { }
 215:../mculib3/src/adc.h **** #endif
 216:../mculib3/src/adc.h **** 
 217:../mculib3/src/adc.h ****     adc.start();
 218:../mculib3/src/adc.h **** }
 219:../mculib3/src/adc.h **** 
 220:../mculib3/src/adc.h **** 
 221:../mculib3/src/adc.h **** void ADC_average::interrupt()
 222:../mculib3/src/adc.h **** {
  57              		.loc 2 222 1 is_stmt 1 view -0
  58              		.cfi_startproc
  59              		@ args = 0, pretend = 0, frame = 0
  60              		@ frame_needed = 0, uses_anonymous_args = 0
 223:../mculib3/src/adc.h ****     for (auto& channel : *this)
  61              		.loc 2 223 5 view .LVU6
 222:../mculib3/src/adc.h ****     for (auto& channel : *this)
  62              		.loc 2 222 1 is_stmt 0 view .LVU7
  63 0000 70B5     		push	{r4, r5, r6, lr}
  64              	.LCFI0:
  65              		.cfi_def_cfa_offset 16
  66              		.cfi_offset 4, -16
  67              		.cfi_offset 5, -12
  68              		.cfi_offset 6, -8
  69              		.cfi_offset 14, -4
  70              	.LBB1795:
  71              		.loc 2 223 27 view .LVU8
  72 0002 8468     		ldr	r4, [r0, #8]
  73              	.LBB1796:
  74              	.LBI1796:
  75              		.file 3 "../mculib3/src/list.h"
   1:../mculib3/src/list.h **** #pragma once
   2:../mculib3/src/list.h **** 
   3:../mculib3/src/list.h **** #include <algorithm>
   4:../mculib3/src/list.h **** 
   5:../mculib3/src/list.h **** 
   6:../mculib3/src/list.h **** template<class T> struct Listable
   7:../mculib3/src/list.h **** {
   8:../mculib3/src/list.h ****    T* prev {nullptr};
   9:../mculib3/src/list.h ****    T* next {nullptr};
  10:../mculib3/src/list.h **** };
  11:../mculib3/src/list.h **** 
  12:../mculib3/src/list.h **** template<class T> class List
  13:../mculib3/src/list.h **** {
  14:../mculib3/src/list.h ****    T* first {nullptr};
  15:../mculib3/src/list.h ****    T* last  {nullptr};
  16:../mculib3/src/list.h **** public:
  17:../mculib3/src/list.h ****    class Iterator
  18:../mculib3/src/list.h ****    {
  19:../mculib3/src/list.h ****       T* p {nullptr};
  20:../mculib3/src/list.h ****    public:
  21:../mculib3/src/list.h ****       using iterator_category = std::input_iterator_tag;
  22:../mculib3/src/list.h ****       using value_type        = T;
ARM GAS  /tmp/ccm4IIvO.s 			page 8


  23:../mculib3/src/list.h ****       using difference_type   = T;
  24:../mculib3/src/list.h ****       using pointer           = const T*;
  25:../mculib3/src/list.h ****       using reference         = T;
  26:../mculib3/src/list.h ****       Iterator (T*);
  27:../mculib3/src/list.h ****       Iterator() = default;
  28:../mculib3/src/list.h ****       operator T*() { return p; }
  29:../mculib3/src/list.h ****       T&        operator*  () const;
  30:../mculib3/src/list.h ****       T*        operator-> () const { return p; }
  31:../mculib3/src/list.h ****       bool      operator!= (const Iterator&) const;
  32:../mculib3/src/list.h ****       Iterator& operator++ ();
  33:../mculib3/src/list.h ****    };
  34:../mculib3/src/list.h **** 
  35:../mculib3/src/list.h ****    void clear_subscribe(){first = nullptr; last = nullptr;}
  36:../mculib3/src/list.h ****    void push_back  (T&);
  37:../mculib3/src/list.h ****    void push_front (T&);
  38:../mculib3/src/list.h ****    void remove     (T&);
  39:../mculib3/src/list.h ****    void insert  (Iterator, T&);
  40:../mculib3/src/list.h ****    void clear();
  41:../mculib3/src/list.h ****    Iterator begin();
  42:../mculib3/src/list.h ****    Iterator end();
  43:../mculib3/src/list.h **** };
  44:../mculib3/src/list.h **** 
  45:../mculib3/src/list.h **** 
  46:../mculib3/src/list.h **** 
  47:../mculib3/src/list.h **** 
  48:../mculib3/src/list.h **** 
  49:../mculib3/src/list.h **** 
  50:../mculib3/src/list.h **** template<class T>
  51:../mculib3/src/list.h **** void List<T>::push_back (T& v)
  52:../mculib3/src/list.h **** {
  53:../mculib3/src/list.h ****    v.prev = last;
  54:../mculib3/src/list.h ****    if (last)
  55:../mculib3/src/list.h ****       last->next = &v;
  56:../mculib3/src/list.h ****    last = &v;
  57:../mculib3/src/list.h ****    if (not first)
  58:../mculib3/src/list.h ****       first = &v;
  59:../mculib3/src/list.h **** }
  60:../mculib3/src/list.h **** 
  61:../mculib3/src/list.h **** 
  62:../mculib3/src/list.h **** template<class T>
  63:../mculib3/src/list.h **** void List<T>::push_front (T& v)
  64:../mculib3/src/list.h **** {
  65:../mculib3/src/list.h ****    v.next = first;
  66:../mculib3/src/list.h ****    if (first)
  67:../mculib3/src/list.h ****       first->prev = &v;
  68:../mculib3/src/list.h ****    first = &v;
  69:../mculib3/src/list.h ****    if (not last)
  70:../mculib3/src/list.h ****       last = &v;
  71:../mculib3/src/list.h **** }
  72:../mculib3/src/list.h **** 
  73:../mculib3/src/list.h **** 
  74:../mculib3/src/list.h **** template<class T>
  75:../mculib3/src/list.h **** void List<T>::remove (T& v)
  76:../mculib3/src/list.h **** {
  77:../mculib3/src/list.h ****    if (v.prev and v.next) {         // –µ—Å–ª–∏ –≤ —Å–µ—Ä–µ–¥–∏–Ω–∫–µ
  78:../mculib3/src/list.h ****       v.prev->next = v.next;
  79:../mculib3/src/list.h ****       v.next->prev = v.prev;
ARM GAS  /tmp/ccm4IIvO.s 			page 9


  80:../mculib3/src/list.h ****    } else if (v.next) {             // –µ—Å–ª–∏ –ø–µ—Ä–≤—ã–π
  81:../mculib3/src/list.h ****       first = v.next;
  82:../mculib3/src/list.h ****       first->prev = nullptr;
  83:../mculib3/src/list.h ****       if (not first) last = nullptr;
  84:../mculib3/src/list.h ****    } else if (v.prev) {             // –µ—Å–ª–∏ –ø–æ—Å–ª–µ–¥–Ω–∏–π
  85:../mculib3/src/list.h ****       last = v.prev;
  86:../mculib3/src/list.h ****       last->next = nullptr;
  87:../mculib3/src/list.h ****       if (not last) first = nullptr;
  88:../mculib3/src/list.h ****    } else {                         // –µ—Å–ª–∏ –µ–¥–∏–Ω—Å—Ç–≤–µ–Ω–Ω—ã–π 
  89:../mculib3/src/list.h ****       first = nullptr;
  90:../mculib3/src/list.h ****       last  = nullptr;
  91:../mculib3/src/list.h ****    }
  92:../mculib3/src/list.h ****    v.prev = nullptr;
  93:../mculib3/src/list.h ****    v.next = nullptr;
  94:../mculib3/src/list.h **** 
  95:../mculib3/src/list.h **** }
  96:../mculib3/src/list.h **** 
  97:../mculib3/src/list.h **** 
  98:../mculib3/src/list.h **** 
  99:../mculib3/src/list.h **** template<class T>
 100:../mculib3/src/list.h **** void List<T>::insert (typename List<T>::Iterator it, T& v)
 101:../mculib3/src/list.h **** {
 102:../mculib3/src/list.h ****    if (it == begin()) {
 103:../mculib3/src/list.h ****       push_front (v);
 104:../mculib3/src/list.h ****    } else if (it == end()) {
 105:../mculib3/src/list.h ****       push_back (v);
 106:../mculib3/src/list.h ****    } else {
 107:../mculib3/src/list.h ****       v.prev = it->prev;
 108:../mculib3/src/list.h ****       v.next = it;
 109:../mculib3/src/list.h ****       it->prev = &v;
 110:../mculib3/src/list.h ****       v.prev->next = &v;
 111:../mculib3/src/list.h ****    }
 112:../mculib3/src/list.h **** }
 113:../mculib3/src/list.h **** 
 114:../mculib3/src/list.h **** template<class T>
 115:../mculib3/src/list.h **** void List<T>::clear()
 116:../mculib3/src/list.h **** {
 117:../mculib3/src/list.h ****    for (auto& v : *this) {
 118:../mculib3/src/list.h ****       v.prev = nullptr;
 119:../mculib3/src/list.h ****       v.next = nullptr;
 120:../mculib3/src/list.h ****    }
 121:../mculib3/src/list.h ****    first = nullptr;
 122:../mculib3/src/list.h ****    last  = nullptr;
 123:../mculib3/src/list.h **** }
 124:../mculib3/src/list.h **** 
 125:../mculib3/src/list.h **** 
 126:../mculib3/src/list.h **** template<class T>
 127:../mculib3/src/list.h **** typename List<T>::Iterator List<T>::begin()
  76              		.loc 3 127 28 is_stmt 1 view .LVU9
  77              	.LVL2:
  78              	.LBB1797:
  79              	.LBI1797:
 128:../mculib3/src/list.h **** {
 129:../mculib3/src/list.h ****    return List<T>::Iterator {first};
 130:../mculib3/src/list.h **** }
 131:../mculib3/src/list.h **** 
 132:../mculib3/src/list.h **** 
ARM GAS  /tmp/ccm4IIvO.s 			page 10


 133:../mculib3/src/list.h **** template<class T>
 134:../mculib3/src/list.h **** typename List<T>::Iterator List<T>::end()
 135:../mculib3/src/list.h **** {
 136:../mculib3/src/list.h ****    return List<T>::Iterator();
 137:../mculib3/src/list.h **** }
 138:../mculib3/src/list.h **** 
 139:../mculib3/src/list.h **** 
 140:../mculib3/src/list.h **** 
 141:../mculib3/src/list.h **** /// Iterator
 142:../mculib3/src/list.h **** template<class T>
 143:../mculib3/src/list.h **** List<T>::Iterator::Iterator (T* other) : p {other} {}
  80              		.loc 3 143 1 view .LVU10
  81              		.loc 3 143 1 is_stmt 0 view .LVU11
  82              	.LBE1797:
  83              	.LBE1796:
  84              	.LBE1795:
 222:../mculib3/src/adc.h ****     for (auto& channel : *this)
  85              		.loc 2 222 1 view .LVU12
  86 0004 0300     		movs	r3, r0
  87              	.LBB1806:
  88              	.LBB1798:
  89              	.LBI1798:
 134:../mculib3/src/list.h **** {
  90              		.loc 3 134 28 is_stmt 1 view .LVU13
  91              	.LVL3:
  92              	.LBB1799:
  93              	.LBI1799:
  27:../mculib3/src/list.h ****       operator T*() { return p; }
  94              		.loc 3 27 7 view .LVU14
  27:../mculib3/src/list.h ****       operator T*() { return p; }
  95              		.loc 3 27 7 is_stmt 0 view .LVU15
  96              	.LBE1799:
  97              	.LBE1798:
  98              		.loc 2 223 27 view .LVU16
  99 0006 2200     		movs	r2, r4
 100              	.LBB1800:
 101              	.LBB1801:
  38:../mculib3/src/adc.h ****     uint32_t operator+= (uint32_t v) { return this->v += v; }
 102              		.loc 2 38 55 view .LVU17
 103 0008 0021     		movs	r1, #0
 104              	.LVL4:
 105              	.L4:
  38:../mculib3/src/adc.h ****     uint32_t operator+= (uint32_t v) { return this->v += v; }
 106              		.loc 2 38 55 view .LVU18
 107              	.LBE1801:
 108              	.LBE1800:
 109              		.loc 2 223 27 is_stmt 1 discriminator 3 view .LVU19
 110              		.loc 2 223 27 is_stmt 0 discriminator 3 view .LVU20
 111 000a 002A     		cmp	r2, #0
 112 000c 02D0     		beq	.L3
 113              	.LVL5:
 224:../mculib3/src/adc.h ****         channel = 0;
 114              		.loc 2 224 9 is_stmt 1 discriminator 2 view .LVU21
 115              	.LBB1803:
 116              	.LBI1800:
  38:../mculib3/src/adc.h ****     uint32_t operator+= (uint32_t v) { return this->v += v; }
 117              		.loc 2 38 14 discriminator 2 view .LVU22
ARM GAS  /tmp/ccm4IIvO.s 			page 11


 118              	.LBB1802:
  38:../mculib3/src/adc.h ****     uint32_t operator+= (uint32_t v) { return this->v += v; }
 119              		.loc 2 38 40 discriminator 2 view .LVU23
  38:../mculib3/src/adc.h ****     uint32_t operator+= (uint32_t v) { return this->v += v; }
 120              		.loc 2 38 55 is_stmt 0 discriminator 2 view .LVU24
 121 000e 9160     		str	r1, [r2, #8]
 122              	.LVL6:
  38:../mculib3/src/adc.h ****     uint32_t operator+= (uint32_t v) { return this->v += v; }
 123              		.loc 2 38 55 discriminator 2 view .LVU25
 124              	.LBE1802:
 125              	.LBE1803:
 223:../mculib3/src/adc.h ****         channel = 0;
 126              		.loc 2 223 5 is_stmt 1 discriminator 2 view .LVU26
 127              	.LBB1804:
 128              	.LBI1804:
 144:../mculib3/src/list.h **** 
 145:../mculib3/src/list.h **** template<class T>
 146:../mculib3/src/list.h **** T& List<T>::Iterator::operator* () const 
 147:../mculib3/src/list.h **** {
 148:../mculib3/src/list.h ****    return *p;
 149:../mculib3/src/list.h **** }
 150:../mculib3/src/list.h **** 
 151:../mculib3/src/list.h **** template<class T>
 152:../mculib3/src/list.h **** bool List<T>::Iterator::operator!= (const List<T>::Iterator& other) const
 153:../mculib3/src/list.h **** {
 154:../mculib3/src/list.h ****    return p != other.p;
 155:../mculib3/src/list.h **** }
 156:../mculib3/src/list.h **** 
 157:../mculib3/src/list.h **** template<class T>
 158:../mculib3/src/list.h **** typename List<T>::Iterator& List<T>::Iterator::operator++ ()
 129              		.loc 3 158 29 discriminator 2 view .LVU27
 130              	.LBB1805:
 159:../mculib3/src/list.h **** {
 160:../mculib3/src/list.h ****    p = p->next;
 131              		.loc 3 160 11 is_stmt 0 discriminator 2 view .LVU28
 132 0010 5268     		ldr	r2, [r2, #4]
 133              	.LVL7:
 161:../mculib3/src/list.h ****    return *this;
 134              		.loc 3 161 12 discriminator 2 view .LVU29
 135 0012 FAE7     		b	.L4
 136              	.LVL8:
 137              	.L3:
 138              		.loc 3 161 12 discriminator 2 view .LVU30
 139              	.LBE1805:
 140              	.LBE1804:
 141              	.LBE1806:
 225:../mculib3/src/adc.h ****     auto it_channel = begin();
 142              		.loc 2 225 5 is_stmt 1 view .LVU31
 143              	.LBB1807:
 144              	.LBI1807:
 127:../mculib3/src/list.h **** {
 145              		.loc 3 127 28 view .LVU32
 146              	.LBB1808:
 147              	.LBI1808:
 143:../mculib3/src/list.h **** 
 148              		.loc 3 143 1 view .LVU33
 143:../mculib3/src/list.h **** 
ARM GAS  /tmp/ccm4IIvO.s 			page 12


 149              		.loc 3 143 1 is_stmt 0 view .LVU34
 150              	.LBE1808:
 151              	.LBE1807:
 226:../mculib3/src/adc.h ****     for (auto v : buffer) {
 152              		.loc 2 226 5 is_stmt 1 view .LVU35
 153              	.LBB1809:
 154              	.LBB1810:
 155              	.LBI1810:
 156              		.file 4 "../mculib3/src/dynarray.h"
   1:../mculib3/src/dynarray.h **** #pragma once
   2:../mculib3/src/dynarray.h **** 
   3:../mculib3/src/dynarray.h **** #include "heap.h"
   4:../mculib3/src/dynarray.h **** 
   5:../mculib3/src/dynarray.h **** template<class T>
   6:../mculib3/src/dynarray.h **** class Dyn_array {
   7:../mculib3/src/dynarray.h ****     using type = Heap_on_stack_allocated<T>;
   8:../mculib3/src/dynarray.h ****     type* pointer {nullptr};
   9:../mculib3/src/dynarray.h ****     size_t size_ {0};
  10:../mculib3/src/dynarray.h **** public:
  11:../mculib3/src/dynarray.h ****     void add_size (size_t v) {
  12:../mculib3/src/dynarray.h ****         if (pointer)
  13:../mculib3/src/dynarray.h ****             delete[] (pointer);
  14:../mculib3/src/dynarray.h ****         pointer = new type[size_ += v];
  15:../mculib3/src/dynarray.h ****     }
  16:../mculib3/src/dynarray.h ****     auto size() const { return size_; }
  17:../mculib3/src/dynarray.h ****     auto address() const { return size_t(pointer); }
  18:../mculib3/src/dynarray.h ****     auto begin() { return pointer; }
  19:../mculib3/src/dynarray.h ****     auto end()   { return pointer + size_; }
 157              		.loc 4 19 10 view .LVU36
 158              	.LBE1810:
 159              	.LBE1809:
 225:../mculib3/src/adc.h ****     for (auto v : buffer) {
 160              		.loc 2 225 29 is_stmt 0 view .LVU37
 161 0014 2100     		movs	r1, r4
 162              	.LBB1821:
 163              	.LBB1812:
 164              	.LBB1811:
 165              		.loc 4 19 35 view .LVU38
 166 0016 5A69     		ldr	r2, [r3, #20]
 167 0018 5000     		lsls	r0, r2, #1
 168              	.LVL9:
 169              		.loc 4 19 37 view .LVU39
 170 001a 1A69     		ldr	r2, [r3, #16]
 171 001c 1018     		adds	r0, r2, r0
 172              	.LVL10:
 173              	.L7:
 174              		.loc 4 19 37 view .LVU40
 175              	.LBE1811:
 176              	.LBE1812:
 177              		.loc 2 226 19 is_stmt 1 discriminator 1 view .LVU41
 178 001e 9042     		cmp	r0, r2
 179 0020 09D0     		beq	.L5
 180              	.LVL11:
 227:../mculib3/src/adc.h ****         *it_channel += v;
 181              		.loc 2 227 9 discriminator 2 view .LVU42
 182              	.LBB1813:
 183              	.LBI1813:
ARM GAS  /tmp/ccm4IIvO.s 			page 13


  39:../mculib3/src/adc.h ****     friend ADC_average;
 184              		.loc 2 39 14 discriminator 2 view .LVU43
 185              	.LBB1814:
  39:../mculib3/src/adc.h ****     friend ADC_average;
 186              		.loc 2 39 40 discriminator 2 view .LVU44
  39:../mculib3/src/adc.h ****     friend ADC_average;
 187              		.loc 2 39 55 is_stmt 0 discriminator 2 view .LVU45
 188 0022 8E68     		ldr	r6, [r1, #8]
 189              	.LBE1814:
 190              	.LBE1813:
 191              		.loc 2 227 21 discriminator 2 view .LVU46
 192 0024 1588     		ldrh	r5, [r2]
 193              	.LVL12:
 194              	.LBB1816:
 195              	.LBB1815:
  39:../mculib3/src/adc.h ****     friend ADC_average;
 196              		.loc 2 39 55 discriminator 2 view .LVU47
 197 0026 7519     		adds	r5, r6, r5
 198              	.LVL13:
  39:../mculib3/src/adc.h ****     friend ADC_average;
 199              		.loc 2 39 55 discriminator 2 view .LVU48
 200 0028 8D60     		str	r5, [r1, #8]
 201              	.LVL14:
  39:../mculib3/src/adc.h ****     friend ADC_average;
 202              		.loc 2 39 55 discriminator 2 view .LVU49
 203              	.LBE1815:
 204              	.LBE1816:
 228:../mculib3/src/adc.h ****         if (++it_channel == end())
 205              		.loc 2 228 9 is_stmt 1 discriminator 2 view .LVU50
 206              	.LBB1817:
 207              	.LBI1817:
 158:../mculib3/src/list.h **** {
 208              		.loc 3 158 29 discriminator 2 view .LVU51
 209              	.LBB1818:
 160:../mculib3/src/list.h ****    return *this;
 210              		.loc 3 160 11 is_stmt 0 discriminator 2 view .LVU52
 211 002a 4968     		ldr	r1, [r1, #4]
 212              	.LVL15:
 160:../mculib3/src/list.h ****    return *this;
 213              		.loc 3 160 11 discriminator 2 view .LVU53
 214              	.LBE1818:
 215              	.LBE1817:
 216              	.LBB1819:
 217              	.LBI1819:
 134:../mculib3/src/list.h **** {
 218              		.loc 3 134 28 is_stmt 1 discriminator 2 view .LVU54
 219              	.LBB1820:
 220              	.LBI1820:
  27:../mculib3/src/list.h ****       operator T*() { return p; }
 221              		.loc 3 27 7 discriminator 2 view .LVU55
  27:../mculib3/src/list.h ****       operator T*() { return p; }
 222              		.loc 3 27 7 is_stmt 0 discriminator 2 view .LVU56
 223              	.LBE1820:
 224              	.LBE1819:
 225              		.loc 2 228 9 discriminator 2 view .LVU57
 226 002c 0029     		cmp	r1, #0
 227 002e 00D1     		bne	.L6
ARM GAS  /tmp/ccm4IIvO.s 			page 14


 229:../mculib3/src/adc.h ****             it_channel = begin();
 228              		.loc 2 229 32 view .LVU58
 229 0030 2100     		movs	r1, r4
 230              	.LVL16:
 231              	.L6:
 226:../mculib3/src/adc.h ****         *it_channel += v;
 232              		.loc 2 226 5 is_stmt 1 discriminator 3 view .LVU59
 226:../mculib3/src/adc.h ****         *it_channel += v;
 233              		.loc 2 226 5 is_stmt 0 discriminator 3 view .LVU60
 234 0032 0232     		adds	r2, r2, #2
 235              	.LVL17:
 226:../mculib3/src/adc.h ****         *it_channel += v;
 236              		.loc 2 226 5 discriminator 3 view .LVU61
 237 0034 F3E7     		b	.L7
 238              	.LVL18:
 239              	.L5:
 226:../mculib3/src/adc.h ****         *it_channel += v;
 240              		.loc 2 226 5 discriminator 3 view .LVU62
 241              	.LBE1821:
 230:../mculib3/src/adc.h ****     }
 231:../mculib3/src/adc.h **** 
 232:../mculib3/src/adc.h ****     if (callback) callback();
 242              		.loc 2 232 5 is_stmt 1 view .LVU63
 243              	.LBB1822:
 244              	.LBI1822:
 245              		.file 5 "/usr/include/newlib/c++/9.2.1/bits/std_function.h"
   1:/usr/include/newlib/c++/9.2.1/bits/std_function.h **** // Implementation of std::function -*- C++ -*-
   2:/usr/include/newlib/c++/9.2.1/bits/std_function.h **** 
   3:/usr/include/newlib/c++/9.2.1/bits/std_function.h **** // Copyright (C) 2004-2019 Free Software Foundation, Inc.
   4:/usr/include/newlib/c++/9.2.1/bits/std_function.h **** //
   5:/usr/include/newlib/c++/9.2.1/bits/std_function.h **** // This file is part of the GNU ISO C++ Library.  This library is free
   6:/usr/include/newlib/c++/9.2.1/bits/std_function.h **** // software; you can redistribute it and/or modify it under the
   7:/usr/include/newlib/c++/9.2.1/bits/std_function.h **** // terms of the GNU General Public License as published by the
   8:/usr/include/newlib/c++/9.2.1/bits/std_function.h **** // Free Software Foundation; either version 3, or (at your option)
   9:/usr/include/newlib/c++/9.2.1/bits/std_function.h **** // any later version.
  10:/usr/include/newlib/c++/9.2.1/bits/std_function.h **** 
  11:/usr/include/newlib/c++/9.2.1/bits/std_function.h **** // This library is distributed in the hope that it will be useful,
  12:/usr/include/newlib/c++/9.2.1/bits/std_function.h **** // but WITHOUT ANY WARRANTY; without even the implied warranty of
  13:/usr/include/newlib/c++/9.2.1/bits/std_function.h **** // MERCHANTABILITY or FITNESS FOR A PARTICULAR PURPOSE.  See the
  14:/usr/include/newlib/c++/9.2.1/bits/std_function.h **** // GNU General Public License for more details.
  15:/usr/include/newlib/c++/9.2.1/bits/std_function.h **** 
  16:/usr/include/newlib/c++/9.2.1/bits/std_function.h **** // Under Section 7 of GPL version 3, you are granted additional
  17:/usr/include/newlib/c++/9.2.1/bits/std_function.h **** // permissions described in the GCC Runtime Library Exception, version
  18:/usr/include/newlib/c++/9.2.1/bits/std_function.h **** // 3.1, as published by the Free Software Foundation.
  19:/usr/include/newlib/c++/9.2.1/bits/std_function.h **** 
  20:/usr/include/newlib/c++/9.2.1/bits/std_function.h **** // You should have received a copy of the GNU General Public License and
  21:/usr/include/newlib/c++/9.2.1/bits/std_function.h **** // a copy of the GCC Runtime Library Exception along with this program;
  22:/usr/include/newlib/c++/9.2.1/bits/std_function.h **** // see the files COPYING3 and COPYING.RUNTIME respectively.  If not, see
  23:/usr/include/newlib/c++/9.2.1/bits/std_function.h **** // <http://www.gnu.org/licenses/>.
  24:/usr/include/newlib/c++/9.2.1/bits/std_function.h **** 
  25:/usr/include/newlib/c++/9.2.1/bits/std_function.h **** /** @file include/bits/std_function.h
  26:/usr/include/newlib/c++/9.2.1/bits/std_function.h ****  *  This is an internal header file, included by other library headers.
  27:/usr/include/newlib/c++/9.2.1/bits/std_function.h ****  *  Do not attempt to use it directly. @headername{functional}
  28:/usr/include/newlib/c++/9.2.1/bits/std_function.h ****  */
  29:/usr/include/newlib/c++/9.2.1/bits/std_function.h **** 
  30:/usr/include/newlib/c++/9.2.1/bits/std_function.h **** #ifndef _GLIBCXX_STD_FUNCTION_H
  31:/usr/include/newlib/c++/9.2.1/bits/std_function.h **** #define _GLIBCXX_STD_FUNCTION_H 1
ARM GAS  /tmp/ccm4IIvO.s 			page 15


  32:/usr/include/newlib/c++/9.2.1/bits/std_function.h **** 
  33:/usr/include/newlib/c++/9.2.1/bits/std_function.h **** #pragma GCC system_header
  34:/usr/include/newlib/c++/9.2.1/bits/std_function.h **** 
  35:/usr/include/newlib/c++/9.2.1/bits/std_function.h **** #if __cplusplus < 201103L
  36:/usr/include/newlib/c++/9.2.1/bits/std_function.h **** # include <bits/c++0x_warning.h>
  37:/usr/include/newlib/c++/9.2.1/bits/std_function.h **** #else
  38:/usr/include/newlib/c++/9.2.1/bits/std_function.h **** 
  39:/usr/include/newlib/c++/9.2.1/bits/std_function.h **** #if __cpp_rtti
  40:/usr/include/newlib/c++/9.2.1/bits/std_function.h **** # include <typeinfo>
  41:/usr/include/newlib/c++/9.2.1/bits/std_function.h **** #endif
  42:/usr/include/newlib/c++/9.2.1/bits/std_function.h **** #include <bits/stl_function.h>
  43:/usr/include/newlib/c++/9.2.1/bits/std_function.h **** #include <bits/invoke.h>
  44:/usr/include/newlib/c++/9.2.1/bits/std_function.h **** #include <bits/refwrap.h>
  45:/usr/include/newlib/c++/9.2.1/bits/std_function.h **** #include <bits/functexcept.h>
  46:/usr/include/newlib/c++/9.2.1/bits/std_function.h **** 
  47:/usr/include/newlib/c++/9.2.1/bits/std_function.h **** namespace std _GLIBCXX_VISIBILITY(default)
  48:/usr/include/newlib/c++/9.2.1/bits/std_function.h **** {
  49:/usr/include/newlib/c++/9.2.1/bits/std_function.h **** _GLIBCXX_BEGIN_NAMESPACE_VERSION
  50:/usr/include/newlib/c++/9.2.1/bits/std_function.h **** 
  51:/usr/include/newlib/c++/9.2.1/bits/std_function.h ****   /**
  52:/usr/include/newlib/c++/9.2.1/bits/std_function.h ****    *  @brief Exception class thrown when class template function's
  53:/usr/include/newlib/c++/9.2.1/bits/std_function.h ****    *  operator() is called with an empty target.
  54:/usr/include/newlib/c++/9.2.1/bits/std_function.h ****    *  @ingroup exceptions
  55:/usr/include/newlib/c++/9.2.1/bits/std_function.h ****    */
  56:/usr/include/newlib/c++/9.2.1/bits/std_function.h ****   class bad_function_call : public std::exception
  57:/usr/include/newlib/c++/9.2.1/bits/std_function.h ****   {
  58:/usr/include/newlib/c++/9.2.1/bits/std_function.h ****   public:
  59:/usr/include/newlib/c++/9.2.1/bits/std_function.h ****     virtual ~bad_function_call() noexcept;
  60:/usr/include/newlib/c++/9.2.1/bits/std_function.h **** 
  61:/usr/include/newlib/c++/9.2.1/bits/std_function.h ****     const char* what() const noexcept;
  62:/usr/include/newlib/c++/9.2.1/bits/std_function.h ****   };
  63:/usr/include/newlib/c++/9.2.1/bits/std_function.h **** 
  64:/usr/include/newlib/c++/9.2.1/bits/std_function.h ****   /**
  65:/usr/include/newlib/c++/9.2.1/bits/std_function.h ****    *  Trait identifying "location-invariant" types, meaning that the
  66:/usr/include/newlib/c++/9.2.1/bits/std_function.h ****    *  address of the object (or any of its members) will not escape.
  67:/usr/include/newlib/c++/9.2.1/bits/std_function.h ****    *  Trivially copyable types are location-invariant and users can
  68:/usr/include/newlib/c++/9.2.1/bits/std_function.h ****    *  specialize this trait for other types.
  69:/usr/include/newlib/c++/9.2.1/bits/std_function.h ****    */
  70:/usr/include/newlib/c++/9.2.1/bits/std_function.h ****   template<typename _Tp>
  71:/usr/include/newlib/c++/9.2.1/bits/std_function.h ****     struct __is_location_invariant
  72:/usr/include/newlib/c++/9.2.1/bits/std_function.h ****     : is_trivially_copyable<_Tp>::type
  73:/usr/include/newlib/c++/9.2.1/bits/std_function.h ****     { };
  74:/usr/include/newlib/c++/9.2.1/bits/std_function.h **** 
  75:/usr/include/newlib/c++/9.2.1/bits/std_function.h ****   class _Undefined_class;
  76:/usr/include/newlib/c++/9.2.1/bits/std_function.h **** 
  77:/usr/include/newlib/c++/9.2.1/bits/std_function.h ****   union _Nocopy_types
  78:/usr/include/newlib/c++/9.2.1/bits/std_function.h ****   {
  79:/usr/include/newlib/c++/9.2.1/bits/std_function.h ****     void*       _M_object;
  80:/usr/include/newlib/c++/9.2.1/bits/std_function.h ****     const void* _M_const_object;
  81:/usr/include/newlib/c++/9.2.1/bits/std_function.h ****     void (*_M_function_pointer)();
  82:/usr/include/newlib/c++/9.2.1/bits/std_function.h ****     void (_Undefined_class::*_M_member_pointer)();
  83:/usr/include/newlib/c++/9.2.1/bits/std_function.h ****   };
  84:/usr/include/newlib/c++/9.2.1/bits/std_function.h **** 
  85:/usr/include/newlib/c++/9.2.1/bits/std_function.h ****   union [[gnu::may_alias]] _Any_data
  86:/usr/include/newlib/c++/9.2.1/bits/std_function.h ****   {
  87:/usr/include/newlib/c++/9.2.1/bits/std_function.h ****     void*       _M_access()       { return &_M_pod_data[0]; }
  88:/usr/include/newlib/c++/9.2.1/bits/std_function.h ****     const void* _M_access() const { return &_M_pod_data[0]; }
ARM GAS  /tmp/ccm4IIvO.s 			page 16


  89:/usr/include/newlib/c++/9.2.1/bits/std_function.h **** 
  90:/usr/include/newlib/c++/9.2.1/bits/std_function.h ****     template<typename _Tp>
  91:/usr/include/newlib/c++/9.2.1/bits/std_function.h ****       _Tp&
  92:/usr/include/newlib/c++/9.2.1/bits/std_function.h ****       _M_access()
  93:/usr/include/newlib/c++/9.2.1/bits/std_function.h ****       { return *static_cast<_Tp*>(_M_access()); }
  94:/usr/include/newlib/c++/9.2.1/bits/std_function.h **** 
  95:/usr/include/newlib/c++/9.2.1/bits/std_function.h ****     template<typename _Tp>
  96:/usr/include/newlib/c++/9.2.1/bits/std_function.h ****       const _Tp&
  97:/usr/include/newlib/c++/9.2.1/bits/std_function.h ****       _M_access() const
  98:/usr/include/newlib/c++/9.2.1/bits/std_function.h ****       { return *static_cast<const _Tp*>(_M_access()); }
  99:/usr/include/newlib/c++/9.2.1/bits/std_function.h **** 
 100:/usr/include/newlib/c++/9.2.1/bits/std_function.h ****     _Nocopy_types _M_unused;
 101:/usr/include/newlib/c++/9.2.1/bits/std_function.h ****     char _M_pod_data[sizeof(_Nocopy_types)];
 102:/usr/include/newlib/c++/9.2.1/bits/std_function.h ****   };
 103:/usr/include/newlib/c++/9.2.1/bits/std_function.h **** 
 104:/usr/include/newlib/c++/9.2.1/bits/std_function.h ****   enum _Manager_operation
 105:/usr/include/newlib/c++/9.2.1/bits/std_function.h ****   {
 106:/usr/include/newlib/c++/9.2.1/bits/std_function.h ****     __get_type_info,
 107:/usr/include/newlib/c++/9.2.1/bits/std_function.h ****     __get_functor_ptr,
 108:/usr/include/newlib/c++/9.2.1/bits/std_function.h ****     __clone_functor,
 109:/usr/include/newlib/c++/9.2.1/bits/std_function.h ****     __destroy_functor
 110:/usr/include/newlib/c++/9.2.1/bits/std_function.h ****   };
 111:/usr/include/newlib/c++/9.2.1/bits/std_function.h **** 
 112:/usr/include/newlib/c++/9.2.1/bits/std_function.h ****   // Simple type wrapper that helps avoid annoying const problems
 113:/usr/include/newlib/c++/9.2.1/bits/std_function.h ****   // when casting between void pointers and pointers-to-pointers.
 114:/usr/include/newlib/c++/9.2.1/bits/std_function.h ****   template<typename _Tp>
 115:/usr/include/newlib/c++/9.2.1/bits/std_function.h ****     struct _Simple_type_wrapper
 116:/usr/include/newlib/c++/9.2.1/bits/std_function.h ****     {
 117:/usr/include/newlib/c++/9.2.1/bits/std_function.h ****       _Simple_type_wrapper(_Tp __value) : __value(__value) { }
 118:/usr/include/newlib/c++/9.2.1/bits/std_function.h **** 
 119:/usr/include/newlib/c++/9.2.1/bits/std_function.h ****       _Tp __value;
 120:/usr/include/newlib/c++/9.2.1/bits/std_function.h ****     };
 121:/usr/include/newlib/c++/9.2.1/bits/std_function.h **** 
 122:/usr/include/newlib/c++/9.2.1/bits/std_function.h ****   template<typename _Tp>
 123:/usr/include/newlib/c++/9.2.1/bits/std_function.h ****     struct __is_location_invariant<_Simple_type_wrapper<_Tp> >
 124:/usr/include/newlib/c++/9.2.1/bits/std_function.h ****     : __is_location_invariant<_Tp>
 125:/usr/include/newlib/c++/9.2.1/bits/std_function.h ****     { };
 126:/usr/include/newlib/c++/9.2.1/bits/std_function.h **** 
 127:/usr/include/newlib/c++/9.2.1/bits/std_function.h ****   template<typename _Signature>
 128:/usr/include/newlib/c++/9.2.1/bits/std_function.h ****     class function;
 129:/usr/include/newlib/c++/9.2.1/bits/std_function.h **** 
 130:/usr/include/newlib/c++/9.2.1/bits/std_function.h ****   /// Base class of all polymorphic function object wrappers.
 131:/usr/include/newlib/c++/9.2.1/bits/std_function.h ****   class _Function_base
 132:/usr/include/newlib/c++/9.2.1/bits/std_function.h ****   {
 133:/usr/include/newlib/c++/9.2.1/bits/std_function.h ****   public:
 134:/usr/include/newlib/c++/9.2.1/bits/std_function.h ****     static const size_t _M_max_size = sizeof(_Nocopy_types);
 135:/usr/include/newlib/c++/9.2.1/bits/std_function.h ****     static const size_t _M_max_align = __alignof__(_Nocopy_types);
 136:/usr/include/newlib/c++/9.2.1/bits/std_function.h **** 
 137:/usr/include/newlib/c++/9.2.1/bits/std_function.h ****     template<typename _Functor>
 138:/usr/include/newlib/c++/9.2.1/bits/std_function.h ****       class _Base_manager
 139:/usr/include/newlib/c++/9.2.1/bits/std_function.h ****       {
 140:/usr/include/newlib/c++/9.2.1/bits/std_function.h ****       protected:
 141:/usr/include/newlib/c++/9.2.1/bits/std_function.h **** 	static const bool __stored_locally =
 142:/usr/include/newlib/c++/9.2.1/bits/std_function.h **** 	(__is_location_invariant<_Functor>::value
 143:/usr/include/newlib/c++/9.2.1/bits/std_function.h **** 	 && sizeof(_Functor) <= _M_max_size
 144:/usr/include/newlib/c++/9.2.1/bits/std_function.h **** 	 && __alignof__(_Functor) <= _M_max_align
 145:/usr/include/newlib/c++/9.2.1/bits/std_function.h **** 	 && (_M_max_align % __alignof__(_Functor) == 0));
ARM GAS  /tmp/ccm4IIvO.s 			page 17


 146:/usr/include/newlib/c++/9.2.1/bits/std_function.h **** 
 147:/usr/include/newlib/c++/9.2.1/bits/std_function.h **** 	typedef integral_constant<bool, __stored_locally> _Local_storage;
 148:/usr/include/newlib/c++/9.2.1/bits/std_function.h **** 
 149:/usr/include/newlib/c++/9.2.1/bits/std_function.h **** 	// Retrieve a pointer to the function object
 150:/usr/include/newlib/c++/9.2.1/bits/std_function.h **** 	static _Functor*
 151:/usr/include/newlib/c++/9.2.1/bits/std_function.h **** 	_M_get_pointer(const _Any_data& __source)
 152:/usr/include/newlib/c++/9.2.1/bits/std_function.h **** 	{
 153:/usr/include/newlib/c++/9.2.1/bits/std_function.h **** 	  if _GLIBCXX17_CONSTEXPR (__stored_locally)
 154:/usr/include/newlib/c++/9.2.1/bits/std_function.h **** 	    {
 155:/usr/include/newlib/c++/9.2.1/bits/std_function.h **** 	      const _Functor& __f = __source._M_access<_Functor>();
 156:/usr/include/newlib/c++/9.2.1/bits/std_function.h **** 	      return const_cast<_Functor*>(std::__addressof(__f));
 157:/usr/include/newlib/c++/9.2.1/bits/std_function.h **** 	    }
 158:/usr/include/newlib/c++/9.2.1/bits/std_function.h **** 	  else // have stored a pointer
 159:/usr/include/newlib/c++/9.2.1/bits/std_function.h **** 	    return __source._M_access<_Functor*>();
 160:/usr/include/newlib/c++/9.2.1/bits/std_function.h **** 	}
 161:/usr/include/newlib/c++/9.2.1/bits/std_function.h **** 
 162:/usr/include/newlib/c++/9.2.1/bits/std_function.h **** 	// Clone a location-invariant function object that fits within
 163:/usr/include/newlib/c++/9.2.1/bits/std_function.h **** 	// an _Any_data structure.
 164:/usr/include/newlib/c++/9.2.1/bits/std_function.h **** 	static void
 165:/usr/include/newlib/c++/9.2.1/bits/std_function.h **** 	_M_clone(_Any_data& __dest, const _Any_data& __source, true_type)
 166:/usr/include/newlib/c++/9.2.1/bits/std_function.h **** 	{
 167:/usr/include/newlib/c++/9.2.1/bits/std_function.h **** 	  ::new (__dest._M_access()) _Functor(__source._M_access<_Functor>());
 168:/usr/include/newlib/c++/9.2.1/bits/std_function.h **** 	}
 169:/usr/include/newlib/c++/9.2.1/bits/std_function.h **** 
 170:/usr/include/newlib/c++/9.2.1/bits/std_function.h **** 	// Clone a function object that is not location-invariant or
 171:/usr/include/newlib/c++/9.2.1/bits/std_function.h **** 	// that cannot fit into an _Any_data structure.
 172:/usr/include/newlib/c++/9.2.1/bits/std_function.h **** 	static void
 173:/usr/include/newlib/c++/9.2.1/bits/std_function.h **** 	_M_clone(_Any_data& __dest, const _Any_data& __source, false_type)
 174:/usr/include/newlib/c++/9.2.1/bits/std_function.h **** 	{
 175:/usr/include/newlib/c++/9.2.1/bits/std_function.h **** 	  __dest._M_access<_Functor*>() =
 176:/usr/include/newlib/c++/9.2.1/bits/std_function.h **** 	    new _Functor(*__source._M_access<const _Functor*>());
 177:/usr/include/newlib/c++/9.2.1/bits/std_function.h **** 	}
 178:/usr/include/newlib/c++/9.2.1/bits/std_function.h **** 
 179:/usr/include/newlib/c++/9.2.1/bits/std_function.h **** 	// Destroying a location-invariant object may still require
 180:/usr/include/newlib/c++/9.2.1/bits/std_function.h **** 	// destruction.
 181:/usr/include/newlib/c++/9.2.1/bits/std_function.h **** 	static void
 182:/usr/include/newlib/c++/9.2.1/bits/std_function.h **** 	_M_destroy(_Any_data& __victim, true_type)
 183:/usr/include/newlib/c++/9.2.1/bits/std_function.h **** 	{
 184:/usr/include/newlib/c++/9.2.1/bits/std_function.h **** 	  __victim._M_access<_Functor>().~_Functor();
 185:/usr/include/newlib/c++/9.2.1/bits/std_function.h **** 	}
 186:/usr/include/newlib/c++/9.2.1/bits/std_function.h **** 
 187:/usr/include/newlib/c++/9.2.1/bits/std_function.h **** 	// Destroying an object located on the heap.
 188:/usr/include/newlib/c++/9.2.1/bits/std_function.h **** 	static void
 189:/usr/include/newlib/c++/9.2.1/bits/std_function.h **** 	_M_destroy(_Any_data& __victim, false_type)
 190:/usr/include/newlib/c++/9.2.1/bits/std_function.h **** 	{
 191:/usr/include/newlib/c++/9.2.1/bits/std_function.h **** 	  delete __victim._M_access<_Functor*>();
 192:/usr/include/newlib/c++/9.2.1/bits/std_function.h **** 	}
 193:/usr/include/newlib/c++/9.2.1/bits/std_function.h **** 
 194:/usr/include/newlib/c++/9.2.1/bits/std_function.h ****       public:
 195:/usr/include/newlib/c++/9.2.1/bits/std_function.h **** 	static bool
 196:/usr/include/newlib/c++/9.2.1/bits/std_function.h **** 	_M_manager(_Any_data& __dest, const _Any_data& __source,
 197:/usr/include/newlib/c++/9.2.1/bits/std_function.h **** 		   _Manager_operation __op)
 198:/usr/include/newlib/c++/9.2.1/bits/std_function.h **** 	{
 199:/usr/include/newlib/c++/9.2.1/bits/std_function.h **** 	  switch (__op)
 200:/usr/include/newlib/c++/9.2.1/bits/std_function.h **** 	    {
 201:/usr/include/newlib/c++/9.2.1/bits/std_function.h **** #if __cpp_rtti
 202:/usr/include/newlib/c++/9.2.1/bits/std_function.h **** 	    case __get_type_info:
ARM GAS  /tmp/ccm4IIvO.s 			page 18


 203:/usr/include/newlib/c++/9.2.1/bits/std_function.h **** 	      __dest._M_access<const type_info*>() = &typeid(_Functor);
 204:/usr/include/newlib/c++/9.2.1/bits/std_function.h **** 	      break;
 205:/usr/include/newlib/c++/9.2.1/bits/std_function.h **** #endif
 206:/usr/include/newlib/c++/9.2.1/bits/std_function.h **** 	    case __get_functor_ptr:
 207:/usr/include/newlib/c++/9.2.1/bits/std_function.h **** 	      __dest._M_access<_Functor*>() = _M_get_pointer(__source);
 208:/usr/include/newlib/c++/9.2.1/bits/std_function.h **** 	      break;
 209:/usr/include/newlib/c++/9.2.1/bits/std_function.h **** 
 210:/usr/include/newlib/c++/9.2.1/bits/std_function.h **** 	    case __clone_functor:
 211:/usr/include/newlib/c++/9.2.1/bits/std_function.h **** 	      _M_clone(__dest, __source, _Local_storage());
 212:/usr/include/newlib/c++/9.2.1/bits/std_function.h **** 	      break;
 213:/usr/include/newlib/c++/9.2.1/bits/std_function.h **** 
 214:/usr/include/newlib/c++/9.2.1/bits/std_function.h **** 	    case __destroy_functor:
 215:/usr/include/newlib/c++/9.2.1/bits/std_function.h **** 	      _M_destroy(__dest, _Local_storage());
 216:/usr/include/newlib/c++/9.2.1/bits/std_function.h **** 	      break;
 217:/usr/include/newlib/c++/9.2.1/bits/std_function.h **** 	    }
 218:/usr/include/newlib/c++/9.2.1/bits/std_function.h **** 	  return false;
 219:/usr/include/newlib/c++/9.2.1/bits/std_function.h **** 	}
 220:/usr/include/newlib/c++/9.2.1/bits/std_function.h **** 
 221:/usr/include/newlib/c++/9.2.1/bits/std_function.h **** 	static void
 222:/usr/include/newlib/c++/9.2.1/bits/std_function.h **** 	_M_init_functor(_Any_data& __functor, _Functor&& __f)
 223:/usr/include/newlib/c++/9.2.1/bits/std_function.h **** 	{ _M_init_functor(__functor, std::move(__f), _Local_storage()); }
 224:/usr/include/newlib/c++/9.2.1/bits/std_function.h **** 
 225:/usr/include/newlib/c++/9.2.1/bits/std_function.h **** 	template<typename _Signature>
 226:/usr/include/newlib/c++/9.2.1/bits/std_function.h **** 	  static bool
 227:/usr/include/newlib/c++/9.2.1/bits/std_function.h **** 	  _M_not_empty_function(const function<_Signature>& __f)
 228:/usr/include/newlib/c++/9.2.1/bits/std_function.h **** 	  { return static_cast<bool>(__f); }
 229:/usr/include/newlib/c++/9.2.1/bits/std_function.h **** 
 230:/usr/include/newlib/c++/9.2.1/bits/std_function.h **** 	template<typename _Tp>
 231:/usr/include/newlib/c++/9.2.1/bits/std_function.h **** 	  static bool
 232:/usr/include/newlib/c++/9.2.1/bits/std_function.h **** 	  _M_not_empty_function(_Tp* __fp)
 233:/usr/include/newlib/c++/9.2.1/bits/std_function.h **** 	  { return __fp != nullptr; }
 234:/usr/include/newlib/c++/9.2.1/bits/std_function.h **** 
 235:/usr/include/newlib/c++/9.2.1/bits/std_function.h **** 	template<typename _Class, typename _Tp>
 236:/usr/include/newlib/c++/9.2.1/bits/std_function.h **** 	  static bool
 237:/usr/include/newlib/c++/9.2.1/bits/std_function.h **** 	  _M_not_empty_function(_Tp _Class::* __mp)
 238:/usr/include/newlib/c++/9.2.1/bits/std_function.h **** 	  { return __mp != nullptr; }
 239:/usr/include/newlib/c++/9.2.1/bits/std_function.h **** 
 240:/usr/include/newlib/c++/9.2.1/bits/std_function.h **** 	template<typename _Tp>
 241:/usr/include/newlib/c++/9.2.1/bits/std_function.h **** 	  static bool
 242:/usr/include/newlib/c++/9.2.1/bits/std_function.h **** 	  _M_not_empty_function(const _Tp&)
 243:/usr/include/newlib/c++/9.2.1/bits/std_function.h **** 	  { return true; }
 244:/usr/include/newlib/c++/9.2.1/bits/std_function.h **** 
 245:/usr/include/newlib/c++/9.2.1/bits/std_function.h ****       private:
 246:/usr/include/newlib/c++/9.2.1/bits/std_function.h **** 	static void
 247:/usr/include/newlib/c++/9.2.1/bits/std_function.h **** 	_M_init_functor(_Any_data& __functor, _Functor&& __f, true_type)
 248:/usr/include/newlib/c++/9.2.1/bits/std_function.h **** 	{ ::new (__functor._M_access()) _Functor(std::move(__f)); }
 249:/usr/include/newlib/c++/9.2.1/bits/std_function.h **** 
 250:/usr/include/newlib/c++/9.2.1/bits/std_function.h **** 	static void
 251:/usr/include/newlib/c++/9.2.1/bits/std_function.h **** 	_M_init_functor(_Any_data& __functor, _Functor&& __f, false_type)
 252:/usr/include/newlib/c++/9.2.1/bits/std_function.h **** 	{ __functor._M_access<_Functor*>() = new _Functor(std::move(__f)); }
 253:/usr/include/newlib/c++/9.2.1/bits/std_function.h ****       };
 254:/usr/include/newlib/c++/9.2.1/bits/std_function.h **** 
 255:/usr/include/newlib/c++/9.2.1/bits/std_function.h ****     _Function_base() : _M_manager(nullptr) { }
 256:/usr/include/newlib/c++/9.2.1/bits/std_function.h **** 
 257:/usr/include/newlib/c++/9.2.1/bits/std_function.h ****     ~_Function_base()
 258:/usr/include/newlib/c++/9.2.1/bits/std_function.h ****     {
 259:/usr/include/newlib/c++/9.2.1/bits/std_function.h ****       if (_M_manager)
ARM GAS  /tmp/ccm4IIvO.s 			page 19


 260:/usr/include/newlib/c++/9.2.1/bits/std_function.h **** 	_M_manager(_M_functor, _M_functor, __destroy_functor);
 261:/usr/include/newlib/c++/9.2.1/bits/std_function.h ****     }
 262:/usr/include/newlib/c++/9.2.1/bits/std_function.h **** 
 263:/usr/include/newlib/c++/9.2.1/bits/std_function.h ****     bool _M_empty() const { return !_M_manager; }
 264:/usr/include/newlib/c++/9.2.1/bits/std_function.h **** 
 265:/usr/include/newlib/c++/9.2.1/bits/std_function.h ****     typedef bool (*_Manager_type)(_Any_data&, const _Any_data&,
 266:/usr/include/newlib/c++/9.2.1/bits/std_function.h **** 				  _Manager_operation);
 267:/usr/include/newlib/c++/9.2.1/bits/std_function.h **** 
 268:/usr/include/newlib/c++/9.2.1/bits/std_function.h ****     _Any_data     _M_functor;
 269:/usr/include/newlib/c++/9.2.1/bits/std_function.h ****     _Manager_type _M_manager;
 270:/usr/include/newlib/c++/9.2.1/bits/std_function.h ****   };
 271:/usr/include/newlib/c++/9.2.1/bits/std_function.h **** 
 272:/usr/include/newlib/c++/9.2.1/bits/std_function.h ****   template<typename _Signature, typename _Functor>
 273:/usr/include/newlib/c++/9.2.1/bits/std_function.h ****     class _Function_handler;
 274:/usr/include/newlib/c++/9.2.1/bits/std_function.h **** 
 275:/usr/include/newlib/c++/9.2.1/bits/std_function.h ****   template<typename _Res, typename _Functor, typename... _ArgTypes>
 276:/usr/include/newlib/c++/9.2.1/bits/std_function.h ****     class _Function_handler<_Res(_ArgTypes...), _Functor>
 277:/usr/include/newlib/c++/9.2.1/bits/std_function.h ****     : public _Function_base::_Base_manager<_Functor>
 278:/usr/include/newlib/c++/9.2.1/bits/std_function.h ****     {
 279:/usr/include/newlib/c++/9.2.1/bits/std_function.h ****       typedef _Function_base::_Base_manager<_Functor> _Base;
 280:/usr/include/newlib/c++/9.2.1/bits/std_function.h **** 
 281:/usr/include/newlib/c++/9.2.1/bits/std_function.h ****     public:
 282:/usr/include/newlib/c++/9.2.1/bits/std_function.h ****       static _Res
 283:/usr/include/newlib/c++/9.2.1/bits/std_function.h ****       _M_invoke(const _Any_data& __functor, _ArgTypes&&... __args)
 284:/usr/include/newlib/c++/9.2.1/bits/std_function.h ****       {
 285:/usr/include/newlib/c++/9.2.1/bits/std_function.h **** 	return (*_Base::_M_get_pointer(__functor))(
 286:/usr/include/newlib/c++/9.2.1/bits/std_function.h **** 	    std::forward<_ArgTypes>(__args)...);
 287:/usr/include/newlib/c++/9.2.1/bits/std_function.h ****       }
 288:/usr/include/newlib/c++/9.2.1/bits/std_function.h ****     };
 289:/usr/include/newlib/c++/9.2.1/bits/std_function.h **** 
 290:/usr/include/newlib/c++/9.2.1/bits/std_function.h ****   template<typename _Functor, typename... _ArgTypes>
 291:/usr/include/newlib/c++/9.2.1/bits/std_function.h ****     class _Function_handler<void(_ArgTypes...), _Functor>
 292:/usr/include/newlib/c++/9.2.1/bits/std_function.h ****     : public _Function_base::_Base_manager<_Functor>
 293:/usr/include/newlib/c++/9.2.1/bits/std_function.h ****     {
 294:/usr/include/newlib/c++/9.2.1/bits/std_function.h ****       typedef _Function_base::_Base_manager<_Functor> _Base;
 295:/usr/include/newlib/c++/9.2.1/bits/std_function.h **** 
 296:/usr/include/newlib/c++/9.2.1/bits/std_function.h ****      public:
 297:/usr/include/newlib/c++/9.2.1/bits/std_function.h ****       static void
 298:/usr/include/newlib/c++/9.2.1/bits/std_function.h ****       _M_invoke(const _Any_data& __functor, _ArgTypes&&... __args)
 299:/usr/include/newlib/c++/9.2.1/bits/std_function.h ****       {
 300:/usr/include/newlib/c++/9.2.1/bits/std_function.h **** 	(*_Base::_M_get_pointer(__functor))(
 301:/usr/include/newlib/c++/9.2.1/bits/std_function.h **** 	    std::forward<_ArgTypes>(__args)...);
 302:/usr/include/newlib/c++/9.2.1/bits/std_function.h ****       }
 303:/usr/include/newlib/c++/9.2.1/bits/std_function.h ****     };
 304:/usr/include/newlib/c++/9.2.1/bits/std_function.h **** 
 305:/usr/include/newlib/c++/9.2.1/bits/std_function.h ****   template<typename _Class, typename _Member, typename _Res,
 306:/usr/include/newlib/c++/9.2.1/bits/std_function.h **** 	   typename... _ArgTypes>
 307:/usr/include/newlib/c++/9.2.1/bits/std_function.h ****     class _Function_handler<_Res(_ArgTypes...), _Member _Class::*>
 308:/usr/include/newlib/c++/9.2.1/bits/std_function.h ****     : public _Function_handler<void(_ArgTypes...), _Member _Class::*>
 309:/usr/include/newlib/c++/9.2.1/bits/std_function.h ****     {
 310:/usr/include/newlib/c++/9.2.1/bits/std_function.h ****       typedef _Function_handler<void(_ArgTypes...), _Member _Class::*>
 311:/usr/include/newlib/c++/9.2.1/bits/std_function.h **** 	_Base;
 312:/usr/include/newlib/c++/9.2.1/bits/std_function.h **** 
 313:/usr/include/newlib/c++/9.2.1/bits/std_function.h ****      public:
 314:/usr/include/newlib/c++/9.2.1/bits/std_function.h ****       static _Res
 315:/usr/include/newlib/c++/9.2.1/bits/std_function.h ****       _M_invoke(const _Any_data& __functor, _ArgTypes&&... __args)
 316:/usr/include/newlib/c++/9.2.1/bits/std_function.h ****       {
ARM GAS  /tmp/ccm4IIvO.s 			page 20


 317:/usr/include/newlib/c++/9.2.1/bits/std_function.h **** 	return std::__invoke(_Base::_M_get_pointer(__functor)->__value,
 318:/usr/include/newlib/c++/9.2.1/bits/std_function.h **** 			     std::forward<_ArgTypes>(__args)...);
 319:/usr/include/newlib/c++/9.2.1/bits/std_function.h ****       }
 320:/usr/include/newlib/c++/9.2.1/bits/std_function.h ****     };
 321:/usr/include/newlib/c++/9.2.1/bits/std_function.h **** 
 322:/usr/include/newlib/c++/9.2.1/bits/std_function.h ****   template<typename _Class, typename _Member, typename... _ArgTypes>
 323:/usr/include/newlib/c++/9.2.1/bits/std_function.h ****     class _Function_handler<void(_ArgTypes...), _Member _Class::*>
 324:/usr/include/newlib/c++/9.2.1/bits/std_function.h ****     : public _Function_base::_Base_manager<
 325:/usr/include/newlib/c++/9.2.1/bits/std_function.h **** 		 _Simple_type_wrapper< _Member _Class::* > >
 326:/usr/include/newlib/c++/9.2.1/bits/std_function.h ****     {
 327:/usr/include/newlib/c++/9.2.1/bits/std_function.h ****       typedef _Member _Class::* _Functor;
 328:/usr/include/newlib/c++/9.2.1/bits/std_function.h ****       typedef _Simple_type_wrapper<_Functor> _Wrapper;
 329:/usr/include/newlib/c++/9.2.1/bits/std_function.h ****       typedef _Function_base::_Base_manager<_Wrapper> _Base;
 330:/usr/include/newlib/c++/9.2.1/bits/std_function.h **** 
 331:/usr/include/newlib/c++/9.2.1/bits/std_function.h ****     public:
 332:/usr/include/newlib/c++/9.2.1/bits/std_function.h ****       static bool
 333:/usr/include/newlib/c++/9.2.1/bits/std_function.h ****       _M_manager(_Any_data& __dest, const _Any_data& __source,
 334:/usr/include/newlib/c++/9.2.1/bits/std_function.h **** 		 _Manager_operation __op)
 335:/usr/include/newlib/c++/9.2.1/bits/std_function.h ****       {
 336:/usr/include/newlib/c++/9.2.1/bits/std_function.h **** 	switch (__op)
 337:/usr/include/newlib/c++/9.2.1/bits/std_function.h **** 	  {
 338:/usr/include/newlib/c++/9.2.1/bits/std_function.h **** #if __cpp_rtti
 339:/usr/include/newlib/c++/9.2.1/bits/std_function.h **** 	  case __get_type_info:
 340:/usr/include/newlib/c++/9.2.1/bits/std_function.h **** 	    __dest._M_access<const type_info*>() = &typeid(_Functor);
 341:/usr/include/newlib/c++/9.2.1/bits/std_function.h **** 	    break;
 342:/usr/include/newlib/c++/9.2.1/bits/std_function.h **** #endif
 343:/usr/include/newlib/c++/9.2.1/bits/std_function.h **** 	  case __get_functor_ptr:
 344:/usr/include/newlib/c++/9.2.1/bits/std_function.h **** 	    __dest._M_access<_Functor*>() =
 345:/usr/include/newlib/c++/9.2.1/bits/std_function.h **** 	      &_Base::_M_get_pointer(__source)->__value;
 346:/usr/include/newlib/c++/9.2.1/bits/std_function.h **** 	    break;
 347:/usr/include/newlib/c++/9.2.1/bits/std_function.h **** 
 348:/usr/include/newlib/c++/9.2.1/bits/std_function.h **** 	  default:
 349:/usr/include/newlib/c++/9.2.1/bits/std_function.h **** 	    _Base::_M_manager(__dest, __source, __op);
 350:/usr/include/newlib/c++/9.2.1/bits/std_function.h **** 	  }
 351:/usr/include/newlib/c++/9.2.1/bits/std_function.h **** 	return false;
 352:/usr/include/newlib/c++/9.2.1/bits/std_function.h ****       }
 353:/usr/include/newlib/c++/9.2.1/bits/std_function.h **** 
 354:/usr/include/newlib/c++/9.2.1/bits/std_function.h ****       static void
 355:/usr/include/newlib/c++/9.2.1/bits/std_function.h ****       _M_invoke(const _Any_data& __functor, _ArgTypes&&... __args)
 356:/usr/include/newlib/c++/9.2.1/bits/std_function.h ****       {
 357:/usr/include/newlib/c++/9.2.1/bits/std_function.h **** 	std::__invoke(_Base::_M_get_pointer(__functor)->__value,
 358:/usr/include/newlib/c++/9.2.1/bits/std_function.h **** 		      std::forward<_ArgTypes>(__args)...);
 359:/usr/include/newlib/c++/9.2.1/bits/std_function.h ****       }
 360:/usr/include/newlib/c++/9.2.1/bits/std_function.h ****     };
 361:/usr/include/newlib/c++/9.2.1/bits/std_function.h **** 
 362:/usr/include/newlib/c++/9.2.1/bits/std_function.h ****   /**
 363:/usr/include/newlib/c++/9.2.1/bits/std_function.h ****    *  @brief Primary class template for std::function.
 364:/usr/include/newlib/c++/9.2.1/bits/std_function.h ****    *  @ingroup functors
 365:/usr/include/newlib/c++/9.2.1/bits/std_function.h ****    *
 366:/usr/include/newlib/c++/9.2.1/bits/std_function.h ****    *  Polymorphic function wrapper.
 367:/usr/include/newlib/c++/9.2.1/bits/std_function.h ****    */
 368:/usr/include/newlib/c++/9.2.1/bits/std_function.h ****   template<typename _Res, typename... _ArgTypes>
 369:/usr/include/newlib/c++/9.2.1/bits/std_function.h ****     class function<_Res(_ArgTypes...)>
 370:/usr/include/newlib/c++/9.2.1/bits/std_function.h ****     : public _Maybe_unary_or_binary_function<_Res, _ArgTypes...>,
 371:/usr/include/newlib/c++/9.2.1/bits/std_function.h ****       private _Function_base
 372:/usr/include/newlib/c++/9.2.1/bits/std_function.h ****     {
 373:/usr/include/newlib/c++/9.2.1/bits/std_function.h ****       template<typename _Func,
ARM GAS  /tmp/ccm4IIvO.s 			page 21


 374:/usr/include/newlib/c++/9.2.1/bits/std_function.h **** 	       typename _Res2 = __invoke_result<_Func&, _ArgTypes...>>
 375:/usr/include/newlib/c++/9.2.1/bits/std_function.h **** 	struct _Callable
 376:/usr/include/newlib/c++/9.2.1/bits/std_function.h **** 	: __is_invocable_impl<_Res2, _Res>::type
 377:/usr/include/newlib/c++/9.2.1/bits/std_function.h **** 	{ };
 378:/usr/include/newlib/c++/9.2.1/bits/std_function.h **** 
 379:/usr/include/newlib/c++/9.2.1/bits/std_function.h ****       // Used so the return type convertibility checks aren't done when
 380:/usr/include/newlib/c++/9.2.1/bits/std_function.h ****       // performing overload resolution for copy construction/assignment.
 381:/usr/include/newlib/c++/9.2.1/bits/std_function.h ****       template<typename _Tp>
 382:/usr/include/newlib/c++/9.2.1/bits/std_function.h **** 	struct _Callable<function, _Tp> : false_type { };
 383:/usr/include/newlib/c++/9.2.1/bits/std_function.h **** 
 384:/usr/include/newlib/c++/9.2.1/bits/std_function.h ****       template<typename _Cond, typename _Tp>
 385:/usr/include/newlib/c++/9.2.1/bits/std_function.h **** 	using _Requires = typename enable_if<_Cond::value, _Tp>::type;
 386:/usr/include/newlib/c++/9.2.1/bits/std_function.h **** 
 387:/usr/include/newlib/c++/9.2.1/bits/std_function.h ****     public:
 388:/usr/include/newlib/c++/9.2.1/bits/std_function.h ****       typedef _Res result_type;
 389:/usr/include/newlib/c++/9.2.1/bits/std_function.h **** 
 390:/usr/include/newlib/c++/9.2.1/bits/std_function.h ****       // [3.7.2.1] construct/copy/destroy
 391:/usr/include/newlib/c++/9.2.1/bits/std_function.h **** 
 392:/usr/include/newlib/c++/9.2.1/bits/std_function.h ****       /**
 393:/usr/include/newlib/c++/9.2.1/bits/std_function.h ****        *  @brief Default construct creates an empty function call wrapper.
 394:/usr/include/newlib/c++/9.2.1/bits/std_function.h ****        *  @post @c !(bool)*this
 395:/usr/include/newlib/c++/9.2.1/bits/std_function.h ****        */
 396:/usr/include/newlib/c++/9.2.1/bits/std_function.h ****       function() noexcept
 397:/usr/include/newlib/c++/9.2.1/bits/std_function.h ****       : _Function_base() { }
 398:/usr/include/newlib/c++/9.2.1/bits/std_function.h **** 
 399:/usr/include/newlib/c++/9.2.1/bits/std_function.h ****       /**
 400:/usr/include/newlib/c++/9.2.1/bits/std_function.h ****        *  @brief Creates an empty function call wrapper.
 401:/usr/include/newlib/c++/9.2.1/bits/std_function.h ****        *  @post @c !(bool)*this
 402:/usr/include/newlib/c++/9.2.1/bits/std_function.h ****        */
 403:/usr/include/newlib/c++/9.2.1/bits/std_function.h ****       function(nullptr_t) noexcept
 404:/usr/include/newlib/c++/9.2.1/bits/std_function.h ****       : _Function_base() { }
 405:/usr/include/newlib/c++/9.2.1/bits/std_function.h **** 
 406:/usr/include/newlib/c++/9.2.1/bits/std_function.h ****       /**
 407:/usr/include/newlib/c++/9.2.1/bits/std_function.h ****        *  @brief %Function copy constructor.
 408:/usr/include/newlib/c++/9.2.1/bits/std_function.h ****        *  @param __x A %function object with identical call signature.
 409:/usr/include/newlib/c++/9.2.1/bits/std_function.h ****        *  @post @c bool(*this) == bool(__x)
 410:/usr/include/newlib/c++/9.2.1/bits/std_function.h ****        *
 411:/usr/include/newlib/c++/9.2.1/bits/std_function.h ****        *  The newly-created %function contains a copy of the target of @a
 412:/usr/include/newlib/c++/9.2.1/bits/std_function.h ****        *  __x (if it has one).
 413:/usr/include/newlib/c++/9.2.1/bits/std_function.h ****        */
 414:/usr/include/newlib/c++/9.2.1/bits/std_function.h ****       function(const function& __x);
 415:/usr/include/newlib/c++/9.2.1/bits/std_function.h **** 
 416:/usr/include/newlib/c++/9.2.1/bits/std_function.h ****       /**
 417:/usr/include/newlib/c++/9.2.1/bits/std_function.h ****        *  @brief %Function move constructor.
 418:/usr/include/newlib/c++/9.2.1/bits/std_function.h ****        *  @param __x A %function object rvalue with identical call signature.
 419:/usr/include/newlib/c++/9.2.1/bits/std_function.h ****        *
 420:/usr/include/newlib/c++/9.2.1/bits/std_function.h ****        *  The newly-created %function contains the target of @a __x
 421:/usr/include/newlib/c++/9.2.1/bits/std_function.h ****        *  (if it has one).
 422:/usr/include/newlib/c++/9.2.1/bits/std_function.h ****        */
 423:/usr/include/newlib/c++/9.2.1/bits/std_function.h ****       function(function&& __x) noexcept : _Function_base()
 424:/usr/include/newlib/c++/9.2.1/bits/std_function.h ****       {
 425:/usr/include/newlib/c++/9.2.1/bits/std_function.h **** 	__x.swap(*this);
 426:/usr/include/newlib/c++/9.2.1/bits/std_function.h ****       }
 427:/usr/include/newlib/c++/9.2.1/bits/std_function.h **** 
 428:/usr/include/newlib/c++/9.2.1/bits/std_function.h ****       /**
 429:/usr/include/newlib/c++/9.2.1/bits/std_function.h ****        *  @brief Builds a %function that targets a copy of the incoming
 430:/usr/include/newlib/c++/9.2.1/bits/std_function.h ****        *  function object.
ARM GAS  /tmp/ccm4IIvO.s 			page 22


 431:/usr/include/newlib/c++/9.2.1/bits/std_function.h ****        *  @param __f A %function object that is callable with parameters of
 432:/usr/include/newlib/c++/9.2.1/bits/std_function.h ****        *  type @c T1, @c T2, ..., @c TN and returns a value convertible
 433:/usr/include/newlib/c++/9.2.1/bits/std_function.h ****        *  to @c Res.
 434:/usr/include/newlib/c++/9.2.1/bits/std_function.h ****        *
 435:/usr/include/newlib/c++/9.2.1/bits/std_function.h ****        *  The newly-created %function object will target a copy of
 436:/usr/include/newlib/c++/9.2.1/bits/std_function.h ****        *  @a __f. If @a __f is @c reference_wrapper<F>, then this function
 437:/usr/include/newlib/c++/9.2.1/bits/std_function.h ****        *  object will contain a reference to the function object @c
 438:/usr/include/newlib/c++/9.2.1/bits/std_function.h ****        *  __f.get(). If @a __f is a NULL function pointer or NULL
 439:/usr/include/newlib/c++/9.2.1/bits/std_function.h ****        *  pointer-to-member, the newly-created object will be empty.
 440:/usr/include/newlib/c++/9.2.1/bits/std_function.h ****        *
 441:/usr/include/newlib/c++/9.2.1/bits/std_function.h ****        *  If @a __f is a non-NULL function pointer or an object of type @c
 442:/usr/include/newlib/c++/9.2.1/bits/std_function.h ****        *  reference_wrapper<F>, this function will not throw.
 443:/usr/include/newlib/c++/9.2.1/bits/std_function.h ****        */
 444:/usr/include/newlib/c++/9.2.1/bits/std_function.h ****       template<typename _Functor,
 445:/usr/include/newlib/c++/9.2.1/bits/std_function.h **** 	       typename = _Requires<__not_<is_same<_Functor, function>>, void>,
 446:/usr/include/newlib/c++/9.2.1/bits/std_function.h **** 	       typename = _Requires<_Callable<_Functor>, void>>
 447:/usr/include/newlib/c++/9.2.1/bits/std_function.h **** 	function(_Functor);
 448:/usr/include/newlib/c++/9.2.1/bits/std_function.h **** 
 449:/usr/include/newlib/c++/9.2.1/bits/std_function.h ****       /**
 450:/usr/include/newlib/c++/9.2.1/bits/std_function.h ****        *  @brief %Function assignment operator.
 451:/usr/include/newlib/c++/9.2.1/bits/std_function.h ****        *  @param __x A %function with identical call signature.
 452:/usr/include/newlib/c++/9.2.1/bits/std_function.h ****        *  @post @c (bool)*this == (bool)x
 453:/usr/include/newlib/c++/9.2.1/bits/std_function.h ****        *  @returns @c *this
 454:/usr/include/newlib/c++/9.2.1/bits/std_function.h ****        *
 455:/usr/include/newlib/c++/9.2.1/bits/std_function.h ****        *  The target of @a __x is copied to @c *this. If @a __x has no
 456:/usr/include/newlib/c++/9.2.1/bits/std_function.h ****        *  target, then @c *this will be empty.
 457:/usr/include/newlib/c++/9.2.1/bits/std_function.h ****        *
 458:/usr/include/newlib/c++/9.2.1/bits/std_function.h ****        *  If @a __x targets a function pointer or a reference to a function
 459:/usr/include/newlib/c++/9.2.1/bits/std_function.h ****        *  object, then this operation will not throw an %exception.
 460:/usr/include/newlib/c++/9.2.1/bits/std_function.h ****        */
 461:/usr/include/newlib/c++/9.2.1/bits/std_function.h ****       function&
 462:/usr/include/newlib/c++/9.2.1/bits/std_function.h ****       operator=(const function& __x)
 463:/usr/include/newlib/c++/9.2.1/bits/std_function.h ****       {
 464:/usr/include/newlib/c++/9.2.1/bits/std_function.h **** 	function(__x).swap(*this);
 465:/usr/include/newlib/c++/9.2.1/bits/std_function.h **** 	return *this;
 466:/usr/include/newlib/c++/9.2.1/bits/std_function.h ****       }
 467:/usr/include/newlib/c++/9.2.1/bits/std_function.h **** 
 468:/usr/include/newlib/c++/9.2.1/bits/std_function.h ****       /**
 469:/usr/include/newlib/c++/9.2.1/bits/std_function.h ****        *  @brief %Function move-assignment operator.
 470:/usr/include/newlib/c++/9.2.1/bits/std_function.h ****        *  @param __x A %function rvalue with identical call signature.
 471:/usr/include/newlib/c++/9.2.1/bits/std_function.h ****        *  @returns @c *this
 472:/usr/include/newlib/c++/9.2.1/bits/std_function.h ****        *
 473:/usr/include/newlib/c++/9.2.1/bits/std_function.h ****        *  The target of @a __x is moved to @c *this. If @a __x has no
 474:/usr/include/newlib/c++/9.2.1/bits/std_function.h ****        *  target, then @c *this will be empty.
 475:/usr/include/newlib/c++/9.2.1/bits/std_function.h ****        *
 476:/usr/include/newlib/c++/9.2.1/bits/std_function.h ****        *  If @a __x targets a function pointer or a reference to a function
 477:/usr/include/newlib/c++/9.2.1/bits/std_function.h ****        *  object, then this operation will not throw an %exception.
 478:/usr/include/newlib/c++/9.2.1/bits/std_function.h ****        */
 479:/usr/include/newlib/c++/9.2.1/bits/std_function.h ****       function&
 480:/usr/include/newlib/c++/9.2.1/bits/std_function.h ****       operator=(function&& __x) noexcept
 481:/usr/include/newlib/c++/9.2.1/bits/std_function.h ****       {
 482:/usr/include/newlib/c++/9.2.1/bits/std_function.h **** 	function(std::move(__x)).swap(*this);
 483:/usr/include/newlib/c++/9.2.1/bits/std_function.h **** 	return *this;
 484:/usr/include/newlib/c++/9.2.1/bits/std_function.h ****       }
 485:/usr/include/newlib/c++/9.2.1/bits/std_function.h **** 
 486:/usr/include/newlib/c++/9.2.1/bits/std_function.h ****       /**
 487:/usr/include/newlib/c++/9.2.1/bits/std_function.h ****        *  @brief %Function assignment to zero.
ARM GAS  /tmp/ccm4IIvO.s 			page 23


 488:/usr/include/newlib/c++/9.2.1/bits/std_function.h ****        *  @post @c !(bool)*this
 489:/usr/include/newlib/c++/9.2.1/bits/std_function.h ****        *  @returns @c *this
 490:/usr/include/newlib/c++/9.2.1/bits/std_function.h ****        *
 491:/usr/include/newlib/c++/9.2.1/bits/std_function.h ****        *  The target of @c *this is deallocated, leaving it empty.
 492:/usr/include/newlib/c++/9.2.1/bits/std_function.h ****        */
 493:/usr/include/newlib/c++/9.2.1/bits/std_function.h ****       function&
 494:/usr/include/newlib/c++/9.2.1/bits/std_function.h ****       operator=(nullptr_t) noexcept
 495:/usr/include/newlib/c++/9.2.1/bits/std_function.h ****       {
 496:/usr/include/newlib/c++/9.2.1/bits/std_function.h **** 	if (_M_manager)
 497:/usr/include/newlib/c++/9.2.1/bits/std_function.h **** 	  {
 498:/usr/include/newlib/c++/9.2.1/bits/std_function.h **** 	    _M_manager(_M_functor, _M_functor, __destroy_functor);
 499:/usr/include/newlib/c++/9.2.1/bits/std_function.h **** 	    _M_manager = nullptr;
 500:/usr/include/newlib/c++/9.2.1/bits/std_function.h **** 	    _M_invoker = nullptr;
 501:/usr/include/newlib/c++/9.2.1/bits/std_function.h **** 	  }
 502:/usr/include/newlib/c++/9.2.1/bits/std_function.h **** 	return *this;
 503:/usr/include/newlib/c++/9.2.1/bits/std_function.h ****       }
 504:/usr/include/newlib/c++/9.2.1/bits/std_function.h **** 
 505:/usr/include/newlib/c++/9.2.1/bits/std_function.h ****       /**
 506:/usr/include/newlib/c++/9.2.1/bits/std_function.h ****        *  @brief %Function assignment to a new target.
 507:/usr/include/newlib/c++/9.2.1/bits/std_function.h ****        *  @param __f A %function object that is callable with parameters of
 508:/usr/include/newlib/c++/9.2.1/bits/std_function.h ****        *  type @c T1, @c T2, ..., @c TN and returns a value convertible
 509:/usr/include/newlib/c++/9.2.1/bits/std_function.h ****        *  to @c Res.
 510:/usr/include/newlib/c++/9.2.1/bits/std_function.h ****        *  @return @c *this
 511:/usr/include/newlib/c++/9.2.1/bits/std_function.h ****        *
 512:/usr/include/newlib/c++/9.2.1/bits/std_function.h ****        *  This  %function object wrapper will target a copy of @a
 513:/usr/include/newlib/c++/9.2.1/bits/std_function.h ****        *  __f. If @a __f is @c reference_wrapper<F>, then this function
 514:/usr/include/newlib/c++/9.2.1/bits/std_function.h ****        *  object will contain a reference to the function object @c
 515:/usr/include/newlib/c++/9.2.1/bits/std_function.h ****        *  __f.get(). If @a __f is a NULL function pointer or NULL
 516:/usr/include/newlib/c++/9.2.1/bits/std_function.h ****        *  pointer-to-member, @c this object will be empty.
 517:/usr/include/newlib/c++/9.2.1/bits/std_function.h ****        *
 518:/usr/include/newlib/c++/9.2.1/bits/std_function.h ****        *  If @a __f is a non-NULL function pointer or an object of type @c
 519:/usr/include/newlib/c++/9.2.1/bits/std_function.h ****        *  reference_wrapper<F>, this function will not throw.
 520:/usr/include/newlib/c++/9.2.1/bits/std_function.h ****        */
 521:/usr/include/newlib/c++/9.2.1/bits/std_function.h ****       template<typename _Functor>
 522:/usr/include/newlib/c++/9.2.1/bits/std_function.h **** 	_Requires<_Callable<typename decay<_Functor>::type>, function&>
 523:/usr/include/newlib/c++/9.2.1/bits/std_function.h **** 	operator=(_Functor&& __f)
 524:/usr/include/newlib/c++/9.2.1/bits/std_function.h **** 	{
 525:/usr/include/newlib/c++/9.2.1/bits/std_function.h **** 	  function(std::forward<_Functor>(__f)).swap(*this);
 526:/usr/include/newlib/c++/9.2.1/bits/std_function.h **** 	  return *this;
 527:/usr/include/newlib/c++/9.2.1/bits/std_function.h **** 	}
 528:/usr/include/newlib/c++/9.2.1/bits/std_function.h **** 
 529:/usr/include/newlib/c++/9.2.1/bits/std_function.h ****       /// @overload
 530:/usr/include/newlib/c++/9.2.1/bits/std_function.h ****       template<typename _Functor>
 531:/usr/include/newlib/c++/9.2.1/bits/std_function.h **** 	function&
 532:/usr/include/newlib/c++/9.2.1/bits/std_function.h **** 	operator=(reference_wrapper<_Functor> __f) noexcept
 533:/usr/include/newlib/c++/9.2.1/bits/std_function.h **** 	{
 534:/usr/include/newlib/c++/9.2.1/bits/std_function.h **** 	  function(__f).swap(*this);
 535:/usr/include/newlib/c++/9.2.1/bits/std_function.h **** 	  return *this;
 536:/usr/include/newlib/c++/9.2.1/bits/std_function.h **** 	}
 537:/usr/include/newlib/c++/9.2.1/bits/std_function.h **** 
 538:/usr/include/newlib/c++/9.2.1/bits/std_function.h ****       // [3.7.2.2] function modifiers
 539:/usr/include/newlib/c++/9.2.1/bits/std_function.h **** 
 540:/usr/include/newlib/c++/9.2.1/bits/std_function.h ****       /**
 541:/usr/include/newlib/c++/9.2.1/bits/std_function.h ****        *  @brief Swap the targets of two %function objects.
 542:/usr/include/newlib/c++/9.2.1/bits/std_function.h ****        *  @param __x A %function with identical call signature.
 543:/usr/include/newlib/c++/9.2.1/bits/std_function.h ****        *
 544:/usr/include/newlib/c++/9.2.1/bits/std_function.h ****        *  Swap the targets of @c this function object and @a __f. This
ARM GAS  /tmp/ccm4IIvO.s 			page 24


 545:/usr/include/newlib/c++/9.2.1/bits/std_function.h ****        *  function will not throw an %exception.
 546:/usr/include/newlib/c++/9.2.1/bits/std_function.h ****        */
 547:/usr/include/newlib/c++/9.2.1/bits/std_function.h ****       void swap(function& __x) noexcept
 548:/usr/include/newlib/c++/9.2.1/bits/std_function.h ****       {
 549:/usr/include/newlib/c++/9.2.1/bits/std_function.h **** 	std::swap(_M_functor, __x._M_functor);
 550:/usr/include/newlib/c++/9.2.1/bits/std_function.h **** 	std::swap(_M_manager, __x._M_manager);
 551:/usr/include/newlib/c++/9.2.1/bits/std_function.h **** 	std::swap(_M_invoker, __x._M_invoker);
 552:/usr/include/newlib/c++/9.2.1/bits/std_function.h ****       }
 553:/usr/include/newlib/c++/9.2.1/bits/std_function.h **** 
 554:/usr/include/newlib/c++/9.2.1/bits/std_function.h ****       // [3.7.2.3] function capacity
 555:/usr/include/newlib/c++/9.2.1/bits/std_function.h **** 
 556:/usr/include/newlib/c++/9.2.1/bits/std_function.h ****       /**
 557:/usr/include/newlib/c++/9.2.1/bits/std_function.h ****        *  @brief Determine if the %function wrapper has a target.
 558:/usr/include/newlib/c++/9.2.1/bits/std_function.h ****        *
 559:/usr/include/newlib/c++/9.2.1/bits/std_function.h ****        *  @return @c true when this %function object contains a target,
 560:/usr/include/newlib/c++/9.2.1/bits/std_function.h ****        *  or @c false when it is empty.
 561:/usr/include/newlib/c++/9.2.1/bits/std_function.h ****        *
 562:/usr/include/newlib/c++/9.2.1/bits/std_function.h ****        *  This function will not throw an %exception.
 563:/usr/include/newlib/c++/9.2.1/bits/std_function.h ****        */
 564:/usr/include/newlib/c++/9.2.1/bits/std_function.h ****       explicit operator bool() const noexcept
 246              		.loc 5 564 16 view .LVU64
 247              		.loc 5 564 16 is_stmt 0 view .LVU65
 248              	.LBE1822:
 263:/usr/include/newlib/c++/9.2.1/bits/std_function.h **** 
 249              		.loc 5 263 29 is_stmt 1 view .LVU66
 250              		.loc 2 232 5 is_stmt 0 view .LVU67
 251 0036 9A6B     		ldr	r2, [r3, #56]
 252              	.LVL19:
 253              		.loc 2 232 5 view .LVU68
 254 0038 002A     		cmp	r2, #0
 255 003a 03D0     		beq	.L2
 256              		.loc 2 232 19 is_stmt 1 view .LVU69
 257              	.LVL20:
 258              	.LBB1823:
 259              	.LBI1823:
 565:/usr/include/newlib/c++/9.2.1/bits/std_function.h ****       { return !_M_empty(); }
 566:/usr/include/newlib/c++/9.2.1/bits/std_function.h **** 
 567:/usr/include/newlib/c++/9.2.1/bits/std_function.h ****       // [3.7.2.4] function invocation
 568:/usr/include/newlib/c++/9.2.1/bits/std_function.h **** 
 569:/usr/include/newlib/c++/9.2.1/bits/std_function.h ****       /**
 570:/usr/include/newlib/c++/9.2.1/bits/std_function.h ****        *  @brief Invokes the function targeted by @c *this.
 571:/usr/include/newlib/c++/9.2.1/bits/std_function.h ****        *  @returns the result of the target.
 572:/usr/include/newlib/c++/9.2.1/bits/std_function.h ****        *  @throws bad_function_call when @c !(bool)*this
 573:/usr/include/newlib/c++/9.2.1/bits/std_function.h ****        *
 574:/usr/include/newlib/c++/9.2.1/bits/std_function.h ****        *  The function call operator invokes the target function object
 575:/usr/include/newlib/c++/9.2.1/bits/std_function.h ****        *  stored by @c this.
 576:/usr/include/newlib/c++/9.2.1/bits/std_function.h ****        */
 577:/usr/include/newlib/c++/9.2.1/bits/std_function.h ****       _Res operator()(_ArgTypes... __args) const;
 578:/usr/include/newlib/c++/9.2.1/bits/std_function.h **** 
 579:/usr/include/newlib/c++/9.2.1/bits/std_function.h **** #if __cpp_rtti
 580:/usr/include/newlib/c++/9.2.1/bits/std_function.h ****       // [3.7.2.5] function target access
 581:/usr/include/newlib/c++/9.2.1/bits/std_function.h ****       /**
 582:/usr/include/newlib/c++/9.2.1/bits/std_function.h ****        *  @brief Determine the type of the target of this function object
 583:/usr/include/newlib/c++/9.2.1/bits/std_function.h ****        *  wrapper.
 584:/usr/include/newlib/c++/9.2.1/bits/std_function.h ****        *
 585:/usr/include/newlib/c++/9.2.1/bits/std_function.h ****        *  @returns the type identifier of the target function object, or
 586:/usr/include/newlib/c++/9.2.1/bits/std_function.h ****        *  @c typeid(void) if @c !(bool)*this.
ARM GAS  /tmp/ccm4IIvO.s 			page 25


 587:/usr/include/newlib/c++/9.2.1/bits/std_function.h ****        *
 588:/usr/include/newlib/c++/9.2.1/bits/std_function.h ****        *  This function will not throw an %exception.
 589:/usr/include/newlib/c++/9.2.1/bits/std_function.h ****        */
 590:/usr/include/newlib/c++/9.2.1/bits/std_function.h ****       const type_info& target_type() const noexcept;
 591:/usr/include/newlib/c++/9.2.1/bits/std_function.h **** 
 592:/usr/include/newlib/c++/9.2.1/bits/std_function.h ****       /**
 593:/usr/include/newlib/c++/9.2.1/bits/std_function.h ****        *  @brief Access the stored target function object.
 594:/usr/include/newlib/c++/9.2.1/bits/std_function.h ****        *
 595:/usr/include/newlib/c++/9.2.1/bits/std_function.h ****        *  @return Returns a pointer to the stored target function object,
 596:/usr/include/newlib/c++/9.2.1/bits/std_function.h ****        *  if @c typeid(_Functor).equals(target_type()); otherwise, a NULL
 597:/usr/include/newlib/c++/9.2.1/bits/std_function.h ****        *  pointer.
 598:/usr/include/newlib/c++/9.2.1/bits/std_function.h ****        *
 599:/usr/include/newlib/c++/9.2.1/bits/std_function.h ****        * This function does not throw exceptions.
 600:/usr/include/newlib/c++/9.2.1/bits/std_function.h ****        *
 601:/usr/include/newlib/c++/9.2.1/bits/std_function.h ****        * @{
 602:/usr/include/newlib/c++/9.2.1/bits/std_function.h ****        */
 603:/usr/include/newlib/c++/9.2.1/bits/std_function.h ****       template<typename _Functor>       _Functor* target() noexcept;
 604:/usr/include/newlib/c++/9.2.1/bits/std_function.h **** 
 605:/usr/include/newlib/c++/9.2.1/bits/std_function.h ****       template<typename _Functor> const _Functor* target() const noexcept;
 606:/usr/include/newlib/c++/9.2.1/bits/std_function.h ****       // @}
 607:/usr/include/newlib/c++/9.2.1/bits/std_function.h **** #endif
 608:/usr/include/newlib/c++/9.2.1/bits/std_function.h **** 
 609:/usr/include/newlib/c++/9.2.1/bits/std_function.h ****     private:
 610:/usr/include/newlib/c++/9.2.1/bits/std_function.h ****       using _Invoker_type = _Res (*)(const _Any_data&, _ArgTypes&&...);
 611:/usr/include/newlib/c++/9.2.1/bits/std_function.h ****       _Invoker_type _M_invoker;
 612:/usr/include/newlib/c++/9.2.1/bits/std_function.h ****   };
 613:/usr/include/newlib/c++/9.2.1/bits/std_function.h **** 
 614:/usr/include/newlib/c++/9.2.1/bits/std_function.h **** #if __cpp_deduction_guides >= 201606
 615:/usr/include/newlib/c++/9.2.1/bits/std_function.h ****   template<typename>
 616:/usr/include/newlib/c++/9.2.1/bits/std_function.h ****     struct __function_guide_helper
 617:/usr/include/newlib/c++/9.2.1/bits/std_function.h ****     { };
 618:/usr/include/newlib/c++/9.2.1/bits/std_function.h **** 
 619:/usr/include/newlib/c++/9.2.1/bits/std_function.h ****   template<typename _Res, typename _Tp, bool _Nx, typename... _Args>
 620:/usr/include/newlib/c++/9.2.1/bits/std_function.h ****     struct __function_guide_helper<
 621:/usr/include/newlib/c++/9.2.1/bits/std_function.h ****       _Res (_Tp::*) (_Args...) noexcept(_Nx)
 622:/usr/include/newlib/c++/9.2.1/bits/std_function.h ****     >
 623:/usr/include/newlib/c++/9.2.1/bits/std_function.h ****     { using type = _Res(_Args...); };
 624:/usr/include/newlib/c++/9.2.1/bits/std_function.h **** 
 625:/usr/include/newlib/c++/9.2.1/bits/std_function.h ****   template<typename _Res, typename _Tp, bool _Nx, typename... _Args>
 626:/usr/include/newlib/c++/9.2.1/bits/std_function.h ****     struct __function_guide_helper<
 627:/usr/include/newlib/c++/9.2.1/bits/std_function.h ****       _Res (_Tp::*) (_Args...) & noexcept(_Nx)
 628:/usr/include/newlib/c++/9.2.1/bits/std_function.h ****     >
 629:/usr/include/newlib/c++/9.2.1/bits/std_function.h ****     { using type = _Res(_Args...); };
 630:/usr/include/newlib/c++/9.2.1/bits/std_function.h **** 
 631:/usr/include/newlib/c++/9.2.1/bits/std_function.h ****   template<typename _Res, typename _Tp, bool _Nx, typename... _Args>
 632:/usr/include/newlib/c++/9.2.1/bits/std_function.h ****     struct __function_guide_helper<
 633:/usr/include/newlib/c++/9.2.1/bits/std_function.h ****       _Res (_Tp::*) (_Args...) const noexcept(_Nx)
 634:/usr/include/newlib/c++/9.2.1/bits/std_function.h ****     >
 635:/usr/include/newlib/c++/9.2.1/bits/std_function.h ****     { using type = _Res(_Args...); };
 636:/usr/include/newlib/c++/9.2.1/bits/std_function.h **** 
 637:/usr/include/newlib/c++/9.2.1/bits/std_function.h ****   template<typename _Res, typename _Tp, bool _Nx, typename... _Args>
 638:/usr/include/newlib/c++/9.2.1/bits/std_function.h ****     struct __function_guide_helper<
 639:/usr/include/newlib/c++/9.2.1/bits/std_function.h ****       _Res (_Tp::*) (_Args...) const & noexcept(_Nx)
 640:/usr/include/newlib/c++/9.2.1/bits/std_function.h ****     >
 641:/usr/include/newlib/c++/9.2.1/bits/std_function.h ****     { using type = _Res(_Args...); };
 642:/usr/include/newlib/c++/9.2.1/bits/std_function.h **** 
 643:/usr/include/newlib/c++/9.2.1/bits/std_function.h ****   template<typename _Res, typename... _ArgTypes>
ARM GAS  /tmp/ccm4IIvO.s 			page 26


 644:/usr/include/newlib/c++/9.2.1/bits/std_function.h ****     function(_Res(*)(_ArgTypes...)) -> function<_Res(_ArgTypes...)>;
 645:/usr/include/newlib/c++/9.2.1/bits/std_function.h **** 
 646:/usr/include/newlib/c++/9.2.1/bits/std_function.h ****   template<typename _Functor, typename _Signature = typename
 647:/usr/include/newlib/c++/9.2.1/bits/std_function.h **** 	   __function_guide_helper<decltype(&_Functor::operator())>::type>
 648:/usr/include/newlib/c++/9.2.1/bits/std_function.h ****     function(_Functor) -> function<_Signature>;
 649:/usr/include/newlib/c++/9.2.1/bits/std_function.h **** #endif
 650:/usr/include/newlib/c++/9.2.1/bits/std_function.h **** 
 651:/usr/include/newlib/c++/9.2.1/bits/std_function.h ****   // Out-of-line member definitions.
 652:/usr/include/newlib/c++/9.2.1/bits/std_function.h ****   template<typename _Res, typename... _ArgTypes>
 653:/usr/include/newlib/c++/9.2.1/bits/std_function.h ****     function<_Res(_ArgTypes...)>::
 654:/usr/include/newlib/c++/9.2.1/bits/std_function.h ****     function(const function& __x)
 655:/usr/include/newlib/c++/9.2.1/bits/std_function.h ****     : _Function_base()
 656:/usr/include/newlib/c++/9.2.1/bits/std_function.h ****     {
 657:/usr/include/newlib/c++/9.2.1/bits/std_function.h ****       if (static_cast<bool>(__x))
 658:/usr/include/newlib/c++/9.2.1/bits/std_function.h **** 	{
 659:/usr/include/newlib/c++/9.2.1/bits/std_function.h **** 	  __x._M_manager(_M_functor, __x._M_functor, __clone_functor);
 660:/usr/include/newlib/c++/9.2.1/bits/std_function.h **** 	  _M_invoker = __x._M_invoker;
 661:/usr/include/newlib/c++/9.2.1/bits/std_function.h **** 	  _M_manager = __x._M_manager;
 662:/usr/include/newlib/c++/9.2.1/bits/std_function.h **** 	}
 663:/usr/include/newlib/c++/9.2.1/bits/std_function.h ****     }
 664:/usr/include/newlib/c++/9.2.1/bits/std_function.h **** 
 665:/usr/include/newlib/c++/9.2.1/bits/std_function.h ****   template<typename _Res, typename... _ArgTypes>
 666:/usr/include/newlib/c++/9.2.1/bits/std_function.h ****     template<typename _Functor, typename, typename>
 667:/usr/include/newlib/c++/9.2.1/bits/std_function.h ****       function<_Res(_ArgTypes...)>::
 668:/usr/include/newlib/c++/9.2.1/bits/std_function.h ****       function(_Functor __f)
 669:/usr/include/newlib/c++/9.2.1/bits/std_function.h ****       : _Function_base()
 670:/usr/include/newlib/c++/9.2.1/bits/std_function.h ****       {
 671:/usr/include/newlib/c++/9.2.1/bits/std_function.h **** 	typedef _Function_handler<_Res(_ArgTypes...), _Functor> _My_handler;
 672:/usr/include/newlib/c++/9.2.1/bits/std_function.h **** 
 673:/usr/include/newlib/c++/9.2.1/bits/std_function.h **** 	if (_My_handler::_M_not_empty_function(__f))
 674:/usr/include/newlib/c++/9.2.1/bits/std_function.h **** 	  {
 675:/usr/include/newlib/c++/9.2.1/bits/std_function.h **** 	    _My_handler::_M_init_functor(_M_functor, std::move(__f));
 676:/usr/include/newlib/c++/9.2.1/bits/std_function.h **** 	    _M_invoker = &_My_handler::_M_invoke;
 677:/usr/include/newlib/c++/9.2.1/bits/std_function.h **** 	    _M_manager = &_My_handler::_M_manager;
 678:/usr/include/newlib/c++/9.2.1/bits/std_function.h **** 	  }
 679:/usr/include/newlib/c++/9.2.1/bits/std_function.h ****       }
 680:/usr/include/newlib/c++/9.2.1/bits/std_function.h **** 
 681:/usr/include/newlib/c++/9.2.1/bits/std_function.h ****   template<typename _Res, typename... _ArgTypes>
 682:/usr/include/newlib/c++/9.2.1/bits/std_function.h ****     _Res
 683:/usr/include/newlib/c++/9.2.1/bits/std_function.h ****     function<_Res(_ArgTypes...)>::
 260              		.loc 5 683 5 view .LVU70
 261              		.loc 5 683 5 is_stmt 0 view .LVU71
 262              	.LBE1823:
 263:/usr/include/newlib/c++/9.2.1/bits/std_function.h **** 
 263              		.loc 5 263 29 is_stmt 1 view .LVU72
 264              	.LBB1825:
 265              	.LBB1824:
 684:/usr/include/newlib/c++/9.2.1/bits/std_function.h ****     operator()(_ArgTypes... __args) const
 685:/usr/include/newlib/c++/9.2.1/bits/std_function.h ****     {
 686:/usr/include/newlib/c++/9.2.1/bits/std_function.h ****       if (_M_empty())
 687:/usr/include/newlib/c++/9.2.1/bits/std_function.h **** 	__throw_bad_function_call();
 688:/usr/include/newlib/c++/9.2.1/bits/std_function.h ****       return _M_invoker(_M_functor, std::forward<_ArgTypes>(__args)...);
 266              		.loc 5 688 25 is_stmt 0 view .LVU73
 267 003c 1800     		movs	r0, r3
 268              	.LVL21:
 269              		.loc 5 688 14 view .LVU74
 270 003e DB6B     		ldr	r3, [r3, #60]
ARM GAS  /tmp/ccm4IIvO.s 			page 27


 271              	.LVL22:
 272              		.loc 5 688 25 view .LVU75
 273 0040 3030     		adds	r0, r0, #48
 274              	.LVL23:
 275              		.loc 5 688 14 view .LVU76
 276 0042 9847     		blx	r3
 277              	.LVL24:
 278              	.L2:
 279              		.loc 5 688 14 view .LVU77
 280              	.LBE1824:
 281              	.LBE1825:
 233:../mculib3/src/adc.h **** }...
 282              		.loc 2 233 1 view .LVU78
 283              		@ sp needed
 284 0044 70BD     		pop	{r4, r5, r6, pc}
 285              		.cfi_endproc
 286              	.LFE4063:
 288              		.section	.text._ZN9Interrupt9interruptEv.isra.0,"ax",%progbits
 289              		.align	1
 290              		.syntax unified
 291              		.code	16
 292              		.thumb_func
 293              		.fpu softvfp
 295              	_ZN9Interrupt9interruptEv.isra.0:
 296              	.LFB5700:
 297              		.file 6 "../mculib3/src/interrupt.h"
   1:../mculib3/src/interrupt.h **** #pragma once
   2:../mculib3/src/interrupt.h **** 
   3:../mculib3/src/interrupt.h **** #include "periph.h"
   4:../mculib3/src/interrupt.h **** 
   5:../mculib3/src/interrupt.h **** #if defined(USE_MOCK_NVIC)
   6:../mculib3/src/interrupt.h ****     inline static auto NVIC_EnableIRQ_t = mock::NVIC_EnableIRQ;
   7:../mculib3/src/interrupt.h **** #else
   8:../mculib3/src/interrupt.h ****     inline static auto NVIC_EnableIRQ_t = ::NVIC_EnableIRQ;
   9:../mculib3/src/interrupt.h **** #endif
  10:../mculib3/src/interrupt.h **** 
  11:../mculib3/src/interrupt.h **** /// –∏–Ω—Ç–µ—Ä—Ñ–µ–π—Å –¥–ª—è –ø–æ–¥–ø–∏—Å–∫–∏ –Ω–∞ –ø—Ä–µ—Ä—ã–≤–∞–Ω–∏—è
  12:../mculib3/src/interrupt.h **** struct Interrupting
  13:../mculib3/src/interrupt.h **** {
  14:../mculib3/src/interrupt.h ****     Interrupting* next {nullptr};
  15:../mculib3/src/interrupt.h ****     virtual void interrupt() = 0;
  16:../mculib3/src/interrupt.h **** };
  17:../mculib3/src/interrupt.h **** 
  18:../mculib3/src/interrupt.h **** class Interrupt 
  19:../mculib3/src/interrupt.h **** {
  20:../mculib3/src/interrupt.h ****     Interrupting* first{nullptr};
  21:../mculib3/src/interrupt.h ****     const IRQn_Type irq_n;
  22:../mculib3/src/interrupt.h **** 
  23:../mculib3/src/interrupt.h **** public:
  24:../mculib3/src/interrupt.h ****     Interrupt (IRQn_Type irq_n) : irq_n {irq_n} {}
  25:../mculib3/src/interrupt.h **** 
  26:../mculib3/src/interrupt.h ****     auto IRQn() const { return irq_n; }
  27:../mculib3/src/interrupt.h **** 
  28:../mculib3/src/interrupt.h ****     void enable() { NVIC_EnableIRQ_t(irq_n); }
  29:../mculib3/src/interrupt.h **** 
  30:../mculib3/src/interrupt.h ****     void subscribe(Interrupting* ps)
  31:../mculib3/src/interrupt.h ****     {
ARM GAS  /tmp/ccm4IIvO.s 			page 28


  32:../mculib3/src/interrupt.h ****         auto p = first;
  33:../mculib3/src/interrupt.h ****         if (p) {
  34:../mculib3/src/interrupt.h ****             while (p->next)
  35:../mculib3/src/interrupt.h ****                 p = p->next;
  36:../mculib3/src/interrupt.h ****             p->next = ps;
  37:../mculib3/src/interrupt.h ****         } else {  
  38:../mculib3/src/interrupt.h ****             first = ps;
  39:../mculib3/src/interrupt.h ****         } 
  40:../mculib3/src/interrupt.h ****     }
  41:../mculib3/src/interrupt.h **** 
  42:../mculib3/src/interrupt.h ****     void clear_subscribe() { first = nullptr; }
  43:../mculib3/src/interrupt.h **** 
  44:../mculib3/src/interrupt.h ****     void interrupt()
 298              		.loc 6 44 10 is_stmt 1 view -0
 299              		.cfi_startproc
 300              		@ args = 0, pretend = 0, frame = 0
 301              		@ frame_needed = 0, uses_anonymous_args = 0
 302 0000 10B5     		push	{r4, lr}
 303              	.LCFI1:
 304              		.cfi_def_cfa_offset 8
 305              		.cfi_offset 4, -8
 306              		.cfi_offset 14, -4
 307 0002 0400     		movs	r4, r0
 308              	.L14:
 309              	.LVL25:
  45:../mculib3/src/interrupt.h ****     {
  46:../mculib3/src/interrupt.h ****         auto p = first;
  47:../mculib3/src/interrupt.h ****         while (p) {
 310              		.loc 6 47 9 view .LVU80
 311              		.loc 6 47 16 view .LVU81
 312 0004 002C     		cmp	r4, #0
 313 0006 05D0     		beq	.L12
  48:../mculib3/src/interrupt.h ****             p->interrupt();
 314              		.loc 6 48 13 view .LVU82
 315              		.loc 6 48 26 is_stmt 0 view .LVU83
 316 0008 2368     		ldr	r3, [r4]
 317              		.loc 6 48 25 view .LVU84
 318 000a 2000     		movs	r0, r4
 319 000c 1B68     		ldr	r3, [r3]
 320 000e 9847     		blx	r3
 321              	.LVL26:
  49:../mculib3/src/interrupt.h ****             p = p->next;
 322              		.loc 6 49 13 is_stmt 1 view .LVU85
 323              		.loc 6 49 15 is_stmt 0 view .LVU86
 324 0010 6468     		ldr	r4, [r4, #4]
 325              	.LVL27:
  47:../mculib3/src/interrupt.h ****             p->interrupt();
 326              		.loc 6 47 9 view .LVU87
 327 0012 F7E7     		b	.L14
 328              	.L12:
  50:../mculib3/src/interrupt.h ****         }
  51:../mculib3/src/interrupt.h ****     }
 329              		.loc 6 51 5 view .LVU88
 330              		@ sp needed
 331              	.LVL28:
 332              		.loc 6 51 5 view .LVU89
 333 0014 10BD     		pop	{r4, pc}
ARM GAS  /tmp/ccm4IIvO.s 			page 29


 334              		.cfi_endproc
 335              	.LFE5700:
 337              		.section	.text._ZN3mcu5FLASH6unlockEv,"ax",%progbits
 338              		.align	1
 339              		.global	_ZN3mcu5FLASH6unlockEv
 340              		.syntax unified
 341              		.code	16
 342              		.thumb_func
 343              		.fpu softvfp
 345              	_ZN3mcu5FLASH6unlockEv:
 346              	.LVL29:
 347              	.LFB91:
 348              		.file 7 "../mculib3/src/periph/flash_f0.h"
   1:../mculib3/src/periph/flash_f0.h **** #pragma once
   2:../mculib3/src/periph/flash_f0.h **** 
   3:../mculib3/src/periph/flash_f0.h **** #include "bits_flash_f0.h"
   4:../mculib3/src/periph/flash_f0.h **** 
   5:../mculib3/src/periph/flash_f0.h **** namespace mcu {
   6:../mculib3/src/periph/flash_f0.h **** 
   7:../mculib3/src/periph/flash_f0.h **** class FLASH {
   8:../mculib3/src/periph/flash_f0.h **** protected:
   9:../mculib3/src/periph/flash_f0.h ****    volatile FLASH_bits::ACR ACR;      // FLASH access control register, offset: 0x00
  10:../mculib3/src/periph/flash_f0.h ****    volatile uint32_t        KEYR;     // FLASH key register,            offset: 0x04
  11:../mculib3/src/periph/flash_f0.h ****    volatile uint32_t        OPTKEYR;  // FLASH OPT key register,        offset: 0x08
  12:../mculib3/src/periph/flash_f0.h ****    volatile FLASH_bits::SR  SR;       // FLASH status register,         offset: 0x0C
  13:../mculib3/src/periph/flash_f0.h ****    volatile FLASH_bits::CR  CR;       // FLASH control register,        offset: 0x10
  14:../mculib3/src/periph/flash_f0.h ****    volatile uint32_t        AR;       // FLASH address register,        offset: 0x14
  15:../mculib3/src/periph/flash_f0.h ****    volatile uint32_t        RESERVED; //  Reserved,                             0x18
  16:../mculib3/src/periph/flash_f0.h ****    volatile uint32_t        OBR;      // FLASH option bytes register,   offset: 0x1C
  17:../mculib3/src/periph/flash_f0.h ****    volatile uint32_t        WRPR;     // FLASH option bytes register,   offset: 0x20
  18:../mculib3/src/periph/flash_f0.h **** public:
  19:../mculib3/src/periph/flash_f0.h ****    using CMSIS_type   = FLASH_TypeDef;
  20:../mculib3/src/periph/flash_f0.h ****    using Latency      = FLASH_bits::ACR::Latency;
  21:../mculib3/src/periph/flash_f0.h ****    /// —Ñ–∞–∫—Ç–∏—á–µ—Å–∫–∏ —ç—Ç–æ —Å—Ç—Ä–∞–Ω–∏—Ü–∞, —á—Ç–æ–±—ã –±—ã–ª–æ –µ–¥–∏–Ω–æ–æ–±—Ä–∞–∑–Ω–æ —
  22:../mculib3/src/periph/flash_f0.h ****    enum Sector { _0, _1, _2, _3, _4, _5, _6, _7, _8, _9,
  23:../mculib3/src/periph/flash_f0.h ****                 _10,_11,_12,_13,_14,_15,_16,_17,_18,_19,
  24:../mculib3/src/periph/flash_f0.h ****                 _20,_21,_22,_23,_24,_25,_26,_27,_28,_29,
  25:../mculib3/src/periph/flash_f0.h ****                 _30,_31
  26:../mculib3/src/periph/flash_f0.h ****    };
  27:../mculib3/src/periph/flash_f0.h **** 
  28:../mculib3/src/periph/flash_f0.h ****    auto& like_CMSIS() { return *reinterpret_cast<CMSIS_type*>(this); }
  29:../mculib3/src/periph/flash_f0.h **** 
  30:../mculib3/src/periph/flash_f0.h ****    FLASH& set (Latency v)            { ACR.LATENCY = v;    return *this; }
  31:../mculib3/src/periph/flash_f0.h ****    FLASH& lock()                     { CR.LOCK     = true; return *this; }
  32:../mculib3/src/periph/flash_f0.h ****    bool   is_lock()                  { return CR.LOCK;                   }
  33:../mculib3/src/periph/flash_f0.h ****    FLASH& unlock();
  34:../mculib3/src/periph/flash_f0.h ****    FLASH& set_progMode()             { CR.PER = false; CR.PG = true; return *this; }
  35:../mculib3/src/periph/flash_f0.h ****    bool   is_endOfProg()             { return SR.EOP;                    }
  36:../mculib3/src/periph/flash_f0.h ****    FLASH& clear_flag_endOfProg()     { SR.EOP      = true; return *this; }
  37:../mculib3/src/periph/flash_f0.h ****    bool   is_busy()                  { return SR.BSY;                    }
  38:../mculib3/src/periph/flash_f0.h ****    FLASH& en_interrupt_endOfProg()   { CR.EOPIE    = true; return *this; }
  39:../mculib3/src/periph/flash_f0.h ****    FLASH& start_erase(Sector);
  40:../mculib3/src/periph/flash_f0.h ****    static constexpr size_t address(Sector s) { return 0x08000000 + 1024 * s; }
  41:../mculib3/src/periph/flash_f0.h **** 
  42:../mculib3/src/periph/flash_f0.h ****    template<Sector> FLASH& start_erase();
  43:../mculib3/src/periph/flash_f0.h **** 
  44:../mculib3/src/periph/flash_f0.h ****    template<Sector s> static constexpr size_t address() { return 0x08000000 + 1024 * s; }
ARM GAS  /tmp/ccm4IIvO.s 			page 30


  45:../mculib3/src/periph/flash_f0.h ****    template<Sector>   static constexpr size_t size()    { return 1024; }
  46:../mculib3/src/periph/flash_f0.h **** };
  47:../mculib3/src/periph/flash_f0.h **** 
  48:../mculib3/src/periph/flash_f0.h **** 
  49:../mculib3/src/periph/flash_f0.h **** #if not defined(USE_MOCK_FLASH)
  50:../mculib3/src/periph/flash_f0.h **** template<Periph p> std::enable_if_t<p == Periph::FLASH, FLASH&> make_reference() { return *reinterp
  51:../mculib3/src/periph/flash_f0.h **** #endif
  52:../mculib3/src/periph/flash_f0.h **** 
  53:../mculib3/src/periph/flash_f0.h **** 
  54:../mculib3/src/periph/flash_f0.h **** 
  55:../mculib3/src/periph/flash_f0.h **** 
  56:../mculib3/src/periph/flash_f0.h **** 
  57:../mculib3/src/periph/flash_f0.h **** 
  58:../mculib3/src/periph/flash_f0.h **** 
  59:../mculib3/src/periph/flash_f0.h **** FLASH& FLASH::unlock()
  60:../mculib3/src/periph/flash_f0.h **** {
 349              		.loc 7 60 1 is_stmt 1 view -0
 350              		.cfi_startproc
 351              		@ args = 0, pretend = 0, frame = 0
 352              		@ frame_needed = 0, uses_anonymous_args = 0
 353              		@ link register save eliminated.
  61:../mculib3/src/periph/flash_f0.h ****    constexpr uint32_t Key1 = 0x45670123;
 354              		.loc 7 61 4 view .LVU91
  62:../mculib3/src/periph/flash_f0.h ****    constexpr uint32_t Key2 = 0xCDEF89AB;
 355              		.loc 7 62 4 view .LVU92
  63:../mculib3/src/periph/flash_f0.h ****    if (is_lock()) {
 356              		.loc 7 63 4 view .LVU93
 357              	.LBB1826:
 358              	.LBI1826:
  32:../mculib3/src/periph/flash_f0.h ****    FLASH& unlock();
 359              		.loc 7 32 11 view .LVU94
 360              	.LBB1827:
  32:../mculib3/src/periph/flash_f0.h ****    FLASH& unlock();
 361              		.loc 7 32 40 view .LVU95
  32:../mculib3/src/periph/flash_f0.h ****    FLASH& unlock();
 362              		.loc 7 32 50 is_stmt 0 view .LVU96
 363 0000 0369     		ldr	r3, [r0, #16]
 364              	.LBE1827:
 365              	.LBE1826:
 366              		.loc 7 63 4 view .LVU97
 367 0002 1B06     		lsls	r3, r3, #24
 368 0004 03D5     		bpl	.L16
  64:../mculib3/src/periph/flash_f0.h ****       KEYR = Key1;
 369              		.loc 7 64 7 is_stmt 1 view .LVU98
 370              		.loc 7 64 12 is_stmt 0 view .LVU99
 371 0006 024B     		ldr	r3, .L20
 372 0008 4360     		str	r3, [r0, #4]
  65:../mculib3/src/periph/flash_f0.h ****       IF_TEST_WAIT_MS(10);
 373              		.loc 7 65 26 is_stmt 1 view .LVU100
  66:../mculib3/src/periph/flash_f0.h ****       KEYR = Key2;
 374              		.loc 7 66 7 view .LVU101
 375              		.loc 7 66 12 is_stmt 0 view .LVU102
 376 000a 024B     		ldr	r3, .L20+4
 377 000c 4360     		str	r3, [r0, #4]
 378              	.L16:
  67:../mculib3/src/periph/flash_f0.h ****    }
  68:../mculib3/src/periph/flash_f0.h ****    return *this;
ARM GAS  /tmp/ccm4IIvO.s 			page 31


 379              		.loc 7 68 4 is_stmt 1 view .LVU103
  69:../mculib3/src/periph/flash_f0.h **** }
 380              		.loc 7 69 1 is_stmt 0 view .LVU104
 381              		@ sp needed
 382 000e 7047     		bx	lr
 383              	.L21:
 384              		.align	2
 385              	.L20:
 386 0010 23016745 		.word	1164378403
 387 0014 AB89EFCD 		.word	-839939669
 388              		.cfi_endproc
 389              	.LFE91:
 391              		.section	.text._ZN3mcu5FLASH11start_eraseENS0_6SectorE,"ax",%progbits
 392              		.align	1
 393              		.global	_ZN3mcu5FLASH11start_eraseENS0_6SectorE
 394              		.syntax unified
 395              		.code	16
 396              		.thumb_func
 397              		.fpu softvfp
 399              	_ZN3mcu5FLASH11start_eraseENS0_6SectorE:
 400              	.LVL30:
 401              	.LFB93:
  70:../mculib3/src/periph/flash_f0.h **** 
  71:../mculib3/src/periph/flash_f0.h **** 
  72:../mculib3/src/periph/flash_f0.h **** template<FLASH::Sector s>
  73:../mculib3/src/periph/flash_f0.h **** FLASH& FLASH::start_erase()
  74:../mculib3/src/periph/flash_f0.h **** {
  75:../mculib3/src/periph/flash_f0.h ****    CR.PG   = false;
  76:../mculib3/src/periph/flash_f0.h ****    CR.PER  = true;
  77:../mculib3/src/periph/flash_f0.h ****    IF_TEST_WAIT_MS(1);
  78:../mculib3/src/periph/flash_f0.h ****    AR = address<s>();
  79:../mculib3/src/periph/flash_f0.h ****    IF_TEST_WAIT_MS(1);
  80:../mculib3/src/periph/flash_f0.h ****    CR.STRT = true;
  81:../mculib3/src/periph/flash_f0.h ****    return *this;
  82:../mculib3/src/periph/flash_f0.h **** }
  83:../mculib3/src/periph/flash_f0.h **** 
  84:../mculib3/src/periph/flash_f0.h **** FLASH& FLASH::start_erase(FLASH::Sector s)
  85:../mculib3/src/periph/flash_f0.h **** {
 402              		.loc 7 85 1 is_stmt 1 view -0
 403              		.cfi_startproc
 404              		@ args = 0, pretend = 0, frame = 0
 405              		@ frame_needed = 0, uses_anonymous_args = 0
 406              		@ link register save eliminated.
  86:../mculib3/src/periph/flash_f0.h ****    CR.PG   = false;
 407              		.loc 7 86 4 view .LVU106
 408              		.loc 7 86 12 is_stmt 0 view .LVU107
 409 0000 0122     		movs	r2, #1
 410 0002 0369     		ldr	r3, [r0, #16]
  87:../mculib3/src/periph/flash_f0.h ****    CR.PER  = true;
  88:../mculib3/src/periph/flash_f0.h ****    IF_TEST_WAIT_MS(1);
  89:../mculib3/src/periph/flash_f0.h ****    AR = address(s);
  90:../mculib3/src/periph/flash_f0.h ****    IF_TEST_WAIT_MS(1);
  91:../mculib3/src/periph/flash_f0.h ****    CR.STRT = true;
  92:../mculib3/src/periph/flash_f0.h ****    return *this;
  93:../mculib3/src/periph/flash_f0.h **** }
 411              		.loc 7 93 1 view .LVU108
 412              		@ sp needed
ARM GAS  /tmp/ccm4IIvO.s 			page 32


  86:../mculib3/src/periph/flash_f0.h ****    CR.PG   = false;
 413              		.loc 7 86 12 view .LVU109
 414 0004 9343     		bics	r3, r2
 415 0006 0361     		str	r3, [r0, #16]
  87:../mculib3/src/periph/flash_f0.h ****    CR.PER  = true;
 416              		.loc 7 87 4 is_stmt 1 view .LVU110
  87:../mculib3/src/periph/flash_f0.h ****    CR.PER  = true;
 417              		.loc 7 87 12 is_stmt 0 view .LVU111
 418 0008 0223     		movs	r3, #2
 419 000a 0269     		ldr	r2, [r0, #16]
 420 000c 1343     		orrs	r3, r2
 421 000e 0361     		str	r3, [r0, #16]
  88:../mculib3/src/periph/flash_f0.h ****    AR = address(s);
 422              		.loc 7 88 22 is_stmt 1 view .LVU112
  89:../mculib3/src/periph/flash_f0.h ****    IF_TEST_WAIT_MS(1);
 423              		.loc 7 89 4 view .LVU113
 424              	.LVL31:
 425              	.LBB1828:
 426              	.LBI1828:
  40:../mculib3/src/periph/flash_f0.h **** 
 427              		.loc 7 40 28 view .LVU114
 428              	.LBB1829:
  40:../mculib3/src/periph/flash_f0.h **** 
 429              		.loc 7 40 48 view .LVU115
  40:../mculib3/src/periph/flash_f0.h **** 
 430              		.loc 7 40 66 is_stmt 0 view .LVU116
 431 0010 8023     		movs	r3, #128
 432 0012 9B02     		lsls	r3, r3, #10
 433 0014 C918     		adds	r1, r1, r3
 434              	.LVL32:
  40:../mculib3/src/periph/flash_f0.h **** 
 435              		.loc 7 40 66 view .LVU117
 436              	.LBE1829:
 437              	.LBE1828:
  91:../mculib3/src/periph/flash_f0.h ****    return *this;
 438              		.loc 7 91 12 view .LVU118
 439 0016 4023     		movs	r3, #64
 440              	.LBB1831:
 441              	.LBB1830:
  40:../mculib3/src/periph/flash_f0.h **** 
 442              		.loc 7 40 66 view .LVU119
 443 0018 8902     		lsls	r1, r1, #10
 444              	.LVL33:
  40:../mculib3/src/periph/flash_f0.h **** 
 445              		.loc 7 40 66 view .LVU120
 446              	.LBE1830:
 447              	.LBE1831:
  89:../mculib3/src/periph/flash_f0.h ****    IF_TEST_WAIT_MS(1);
 448              		.loc 7 89 7 view .LVU121
 449 001a 4161     		str	r1, [r0, #20]
  90:../mculib3/src/periph/flash_f0.h ****    CR.STRT = true;
 450              		.loc 7 90 22 is_stmt 1 view .LVU122
  91:../mculib3/src/periph/flash_f0.h ****    return *this;
 451              		.loc 7 91 4 view .LVU123
  91:../mculib3/src/periph/flash_f0.h ****    return *this;
 452              		.loc 7 91 12 is_stmt 0 view .LVU124
 453 001c 0269     		ldr	r2, [r0, #16]
ARM GAS  /tmp/ccm4IIvO.s 			page 33


 454 001e 1343     		orrs	r3, r2
 455 0020 0361     		str	r3, [r0, #16]
  92:../mculib3/src/periph/flash_f0.h **** }
 456              		.loc 7 92 4 is_stmt 1 view .LVU125
 457              		.loc 7 93 1 is_stmt 0 view .LVU126
 458 0022 7047     		bx	lr
 459              		.cfi_endproc
 460              	.LFE93:
 462              		.section	.text._ZN9Publisher6notifyEv,"axG",%progbits,_ZN9Publisher6notifyEv,comdat
 463              		.align	1
 464              		.weak	_ZN9Publisher6notifyEv
 465              		.syntax unified
 466              		.code	16
 467              		.thumb_func
 468              		.fpu softvfp
 470              	_ZN9Publisher6notifyEv:
 471              	.LVL34:
 472              	.LFB3572:
 473              		.file 8 "../mculib3/src/subscriber.h"
   1:../mculib3/src/subscriber.h **** #pragma once
   2:../mculib3/src/subscriber.h **** 
   3:../mculib3/src/subscriber.h **** #include "list.h"
   4:../mculib3/src/subscriber.h **** #include "systick.h"
   5:../mculib3/src/subscriber.h **** 
   6:../mculib3/src/subscriber.h **** struct Subscriber : Listable<Subscriber> {
   7:../mculib3/src/subscriber.h ****     virtual void notify() = 0;
   8:../mculib3/src/subscriber.h **** };
   9:../mculib3/src/subscriber.h **** 
  10:../mculib3/src/subscriber.h **** struct Publisher : private List<Subscriber>
  11:../mculib3/src/subscriber.h **** {
  12:../mculib3/src/subscriber.h ****     
  13:../mculib3/src/subscriber.h ****     void clear(){clear_subscribe();}
  14:../mculib3/src/subscriber.h ****     void subscribe  (Subscriber& v) { push_back(v); }
  15:../mculib3/src/subscriber.h ****     void unsubscribe(Subscriber& v) { remove(v);    }
  16:../mculib3/src/subscriber.h ****     // —Å—Å—ã–ª–∫–∞, —á—Ç–æ–±—ã –Ω–µ –∫–æ–ø–∏—Ä–æ–≤–∞–ª –∫–∞–∂–¥—ã–π subscriber –∏–∑ *this
  17:../mculib3/src/subscriber.h ****     void notify() {
 474              		.loc 8 17 10 is_stmt 1 view -0
 475              		.cfi_startproc
 476              		@ args = 0, pretend = 0, frame = 0
 477              		@ frame_needed = 0, uses_anonymous_args = 0
  18:../mculib3/src/subscriber.h ****         for (auto& subscriber : *this)
 478              		.loc 8 18 9 view .LVU128
  17:../mculib3/src/subscriber.h ****         for (auto& subscriber : *this)
 479              		.loc 8 17 10 is_stmt 0 view .LVU129
 480 0000 10B5     		push	{r4, lr}
 481              	.LCFI2:
 482              		.cfi_def_cfa_offset 8
 483              		.cfi_offset 4, -8
 484              		.cfi_offset 14, -4
 485              	.LBB1832:
 486              		.loc 8 18 34 view .LVU130
 487 0002 0468     		ldr	r4, [r0]
 488              	.LBB1833:
 489              	.LBI1833:
 127:../mculib3/src/list.h **** {
 490              		.loc 3 127 28 is_stmt 1 view .LVU131
 491              	.LVL35:
ARM GAS  /tmp/ccm4IIvO.s 			page 34


 492              	.LBB1834:
 493              	.LBI1834:
 143:../mculib3/src/list.h **** 
 494              		.loc 3 143 1 view .LVU132
 143:../mculib3/src/list.h **** 
 495              		.loc 3 143 1 is_stmt 0 view .LVU133
 496              	.LBE1834:
 497              	.LBE1833:
 498              	.LBB1835:
 499              	.LBI1835:
 134:../mculib3/src/list.h **** {
 500              		.loc 3 134 28 is_stmt 1 view .LVU134
 501              	.LBB1836:
 502              	.LBI1836:
  27:../mculib3/src/list.h ****       operator T*() { return p; }
 503              		.loc 3 27 7 view .LVU135
 504              	.L25:
  27:../mculib3/src/list.h ****       operator T*() { return p; }
 505              		.loc 3 27 7 is_stmt 0 view .LVU136
 506              	.LBE1836:
 507              	.LBE1835:
 508              		.loc 8 18 34 is_stmt 1 discriminator 3 view .LVU137
 509              		.loc 8 18 34 is_stmt 0 discriminator 3 view .LVU138
 510 0004 002C     		cmp	r4, #0
 511 0006 05D0     		beq	.L23
 512              	.LVL36:
  19:../mculib3/src/subscriber.h ****             subscriber.notify();
 513              		.loc 8 19 13 is_stmt 1 discriminator 2 view .LVU139
 514              		.loc 8 19 31 is_stmt 0 discriminator 2 view .LVU140
 515 0008 2368     		ldr	r3, [r4]
 516              		.loc 8 19 30 discriminator 2 view .LVU141
 517 000a 2000     		movs	r0, r4
 518 000c 1B68     		ldr	r3, [r3]
 519 000e 9847     		blx	r3
 520              	.LVL37:
  18:../mculib3/src/subscriber.h ****             subscriber.notify();
 521              		.loc 8 18 9 is_stmt 1 discriminator 2 view .LVU142
 522              	.LBB1837:
 523              	.LBI1837:
 158:../mculib3/src/list.h **** {
 524              		.loc 3 158 29 discriminator 2 view .LVU143
 525              	.LBB1838:
 160:../mculib3/src/list.h ****    return *this;
 526              		.loc 3 160 11 is_stmt 0 discriminator 2 view .LVU144
 527 0010 A468     		ldr	r4, [r4, #8]
 528              	.LVL38:
 529              		.loc 3 161 12 discriminator 2 view .LVU145
 530 0012 F7E7     		b	.L25
 531              	.LVL39:
 532              	.L23:
 533              		.loc 3 161 12 discriminator 2 view .LVU146
 534              	.LBE1838:
 535              	.LBE1837:
 536              	.LBE1832:
  20:../mculib3/src/subscriber.h ****     }
 537              		.loc 8 20 5 view .LVU147
 538              		@ sp needed
ARM GAS  /tmp/ccm4IIvO.s 			page 35


 539              	.LVL40:
 540              		.loc 8 20 5 view .LVU148
 541 0014 10BD     		pop	{r4, pc}
 542              		.cfi_endproc
 543              	.LFE3572:
 545              		.global	__aeabi_uidivmod
 546              		.section	.text._ZN11TickUpdater9interruptEv,"ax",%progbits
 547              		.align	1
 548              		.global	_ZN11TickUpdater9interruptEv
 549              		.syntax unified
 550              		.code	16
 551              		.thumb_func
 552              		.fpu softvfp
 554              	_ZN11TickUpdater9interruptEv:
 555              	.LVL41:
 556              	.LFB3603:
  82:../mculib3/src/timers.h **** };
  83:../mculib3/src/timers.h **** 
  84:../mculib3/src/timers.h **** 
  85:../mculib3/src/timers.h **** 
  86:../mculib3/src/timers.h **** 
  87:../mculib3/src/timers.h **** 
  88:../mculib3/src/timers.h **** 
  89:../mculib3/src/timers.h **** 
  90:../mculib3/src/timers.h **** 
  91:../mculib3/src/timers.h **** template<Faster multiplier> // how many subticks in tick
  92:../mculib3/src/timers.h **** void TickUpdater::subscribe_subtick (Subscriber& v)
  93:../mculib3/src/timers.h **** {
  94:../mculib3/src/timers.h ****     subtick.subscribe(v);
  95:../mculib3/src/timers.h ****     subtick_qty = multiplier;
  96:../mculib3/src/timers.h ****     REF(SysTick).initInterrupt<1000_us/multiplier>();
  97:../mculib3/src/timers.h **** }
  98:../mculib3/src/timers.h **** 
  99:../mculib3/src/timers.h **** 
 100:../mculib3/src/timers.h **** 
 101:../mculib3/src/timers.h **** template<class Function>
 102:../mculib3/src/timers.h **** inline void every_qty_cnt_call(size_t& cnt, size_t qty, Function call)
 103:../mculib3/src/timers.h **** {
 104:../mculib3/src/timers.h ****     if (not(cnt++ % qty))
 105:../mculib3/src/timers.h ****         call();
 106:../mculib3/src/timers.h **** }
 107:../mculib3/src/timers.h **** 
 108:../mculib3/src/timers.h **** 
 109:../mculib3/src/timers.h **** 
 110:../mculib3/src/timers.h **** void TickUpdater::interrupt()
 111:../mculib3/src/timers.h **** {
 557              		.loc 1 111 1 is_stmt 1 view -0
 558              		.cfi_startproc
 559              		@ args = 0, pretend = 0, frame = 0
 560              		@ frame_needed = 0, uses_anonymous_args = 0
 112:../mculib3/src/timers.h ****     subtick.notify();
 561              		.loc 1 112 5 view .LVU150
 111:../mculib3/src/timers.h ****     subtick.notify();
 562              		.loc 1 111 1 is_stmt 0 view .LVU151
 563 0000 10B5     		push	{r4, lr}
 564              	.LCFI3:
 565              		.cfi_def_cfa_offset 8
ARM GAS  /tmp/ccm4IIvO.s 			page 36


 566              		.cfi_offset 4, -8
 567              		.cfi_offset 14, -4
 111:../mculib3/src/timers.h ****     subtick.notify();
 568              		.loc 1 111 1 view .LVU152
 569 0002 0400     		movs	r4, r0
 570              		.loc 1 112 19 view .LVU153
 571 0004 0830     		adds	r0, r0, #8
 572              	.LVL42:
 573              		.loc 1 112 19 view .LVU154
 574 0006 FFF7FEFF 		bl	_ZN9Publisher6notifyEv
 575              	.LVL43:
 113:../mculib3/src/timers.h ****     every_qty_cnt_call (subtick_cnt, subtick_qty, [this]{
 576              		.loc 1 113 5 is_stmt 1 view .LVU155
 577              	.LBB1843:
 578              	.LBI1843:
 102:../mculib3/src/timers.h **** {
 579              		.loc 1 102 13 view .LVU156
 580              	.LBB1844:
 104:../mculib3/src/timers.h ****         call();
 581              		.loc 1 104 19 is_stmt 0 view .LVU157
 582 000a 2069     		ldr	r0, [r4, #16]
 583 000c 6169     		ldr	r1, [r4, #20]
 584 000e 431C     		adds	r3, r0, #1
 585 0010 2361     		str	r3, [r4, #16]
 586 0012 FFF7FEFF 		bl	__aeabi_uidivmod
 587              	.LVL44:
 104:../mculib3/src/timers.h ****         call();
 588              		.loc 1 104 5 view .LVU158
 589 0016 0029     		cmp	r1, #0
 590 0018 02D1     		bne	.L26
 591              	.LBB1845:
 592              	.LBI1845:
 593              		.loc 1 113 51 is_stmt 1 view .LVU159
 594              	.LVL45:
 595              	.LBB1846:
 114:../mculib3/src/timers.h ****         notify();
 596              		.loc 1 114 9 view .LVU160
 597              		.loc 1 114 15 is_stmt 0 view .LVU161
 598 001a 2000     		movs	r0, r4
 599 001c FFF7FEFF 		bl	_ZN9Publisher6notifyEv
 600              	.LVL46:
 601              	.L26:
 602              		.loc 1 114 15 view .LVU162
 603              	.LBE1846:
 604              	.LBE1845:
 605              	.LBE1844:
 606              	.LBE1843:
 115:../mculib3/src/timers.h ****     });
 116:../mculib3/src/timers.h **** }
 607              		.loc 1 116 1 view .LVU163
 608              		@ sp needed
 609              	.LVL47:
 610              		.loc 1 116 1 view .LVU164
 611 0020 10BD     		pop	{r4, pc}
 612              		.cfi_endproc
 613              	.LFE3603:
 615              		.section	.text.SysTick_Handler,"ax",%progbits
ARM GAS  /tmp/ccm4IIvO.s 			page 37


 616              		.align	1
 617              		.global	SysTick_Handler
 618              		.syntax unified
 619              		.code	16
 620              		.thumb_func
 621              		.fpu softvfp
 623              	SysTick_Handler:
 624              	.LFB3584:
  38:../mculib3/src/timers.h ****     tickUpdater.interrupt();
 625              		.loc 1 38 1 is_stmt 1 view -0
 626              		.cfi_startproc
 627              		@ args = 0, pretend = 0, frame = 0
 628              		@ frame_needed = 0, uses_anonymous_args = 0
  39:../mculib3/src/timers.h **** }
 629              		.loc 1 39 5 view .LVU166
  38:../mculib3/src/timers.h ****     tickUpdater.interrupt();
 630              		.loc 1 38 1 is_stmt 0 view .LVU167
 631 0000 10B5     		push	{r4, lr}
 632              	.LCFI4:
 633              		.cfi_def_cfa_offset 8
 634              		.cfi_offset 4, -8
 635              		.cfi_offset 14, -4
  39:../mculib3/src/timers.h **** }
 636              		.loc 1 39 26 view .LVU168
 637 0002 0248     		ldr	r0, .L29
 638 0004 FFF7FEFF 		bl	_ZN11TickUpdater9interruptEv
 639              	.LVL48:
  40:../mculib3/src/timers.h **** 
 640              		.loc 1 40 1 view .LVU169
 641              		@ sp needed
 642 0008 10BD     		pop	{r4, pc}
 643              	.L30:
 644 000a C046     		.align	2
 645              	.L29:
 646 000c 00000000 		.word	.LANCHOR0
 647              		.cfi_endproc
 648              	.LFE3584:
 650              		.section	.text._ZN5Timer5eventEv,"ax",%progbits
 651              		.align	1
 652              		.global	_ZN5Timer5eventEv
 653              		.syntax unified
 654              		.code	16
 655              		.thumb_func
 656              		.fpu softvfp
 658              	_ZN5Timer5eventEv:
 659              	.LVL49:
 660              	.LFB3606:
 117:../mculib3/src/timers.h **** 
 118:../mculib3/src/timers.h **** 
 119:../mculib3/src/timers.h **** 
 120:../mculib3/src/timers.h **** void Timer::start (uint32_t ms)
 121:../mculib3/src/timers.h **** {
 122:../mculib3/src/timers.h ****     timeSet = ms;
 123:../mculib3/src/timers.h ****     tick_subscribe();
 124:../mculib3/src/timers.h **** }
 125:../mculib3/src/timers.h **** 
 126:../mculib3/src/timers.h **** 
ARM GAS  /tmp/ccm4IIvO.s 			page 38


 127:../mculib3/src/timers.h **** 
 128:../mculib3/src/timers.h **** bool Timer::event()
 129:../mculib3/src/timers.h **** {
 661              		.loc 1 129 1 is_stmt 1 view -0
 662              		.cfi_startproc
 663              		@ args = 0, pretend = 0, frame = 0
 664              		@ frame_needed = 0, uses_anonymous_args = 0
 665              		@ link register save eliminated.
 130:../mculib3/src/timers.h ****     if (timePassed_ >= timeSet) {
 666              		.loc 1 130 5 view .LVU171
 667              		.loc 1 130 9 is_stmt 0 view .LVU172
 668 0000 4169     		ldr	r1, [r0, #20]
 669              		.loc 1 130 24 view .LVU173
 670 0002 0269     		ldr	r2, [r0, #16]
 129:../mculib3/src/timers.h ****     if (timePassed_ >= timeSet) {
 671              		.loc 1 129 1 view .LVU174
 672 0004 0300     		movs	r3, r0
 673 0006 0020     		movs	r0, #0
 674              	.LVL50:
 675              		.loc 1 130 5 view .LVU175
 676 0008 9142     		cmp	r1, r2
 677 000a 01D3     		bcc	.L32
 131:../mculib3/src/timers.h ****         timePassed_ = 0;
 678              		.loc 1 131 9 is_stmt 1 view .LVU176
 679              		.loc 1 131 21 is_stmt 0 view .LVU177
 680 000c 5861     		str	r0, [r3, #20]
 132:../mculib3/src/timers.h ****         return (true);
 681              		.loc 1 132 9 is_stmt 1 view .LVU178
 682              		.loc 1 132 21 is_stmt 0 view .LVU179
 683 000e 0130     		adds	r0, r0, #1
 684              	.L32:
 133:../mculib3/src/timers.h ****     } else {
 134:../mculib3/src/timers.h ****         return (false);
 135:../mculib3/src/timers.h ****     }
 136:../mculib3/src/timers.h **** }
 685              		.loc 1 136 1 view .LVU180
 686              		@ sp needed
 687 0010 7047     		bx	lr
 688              		.cfi_endproc
 689              	.LFE3606:
 691              		.section	.text._ZN5Timer4doneEv,"ax",%progbits
 692              		.align	1
 693              		.global	_ZN5Timer4doneEv
 694              		.syntax unified
 695              		.code	16
 696              		.thumb_func
 697              		.fpu softvfp
 699              	_ZN5Timer4doneEv:
 700              	.LVL51:
 701              	.LFB3609:
 137:../mculib3/src/timers.h **** 
 138:../mculib3/src/timers.h **** 
 139:../mculib3/src/timers.h **** 
 140:../mculib3/src/timers.h **** template<class Functor>
 141:../mculib3/src/timers.h **** void Timer::event (Functor functor)
 142:../mculib3/src/timers.h **** {
 143:../mculib3/src/timers.h ****     if (timePassed_ >= timeSet) {
ARM GAS  /tmp/ccm4IIvO.s 			page 39


 144:../mculib3/src/timers.h ****         timePassed_ = 0;
 145:../mculib3/src/timers.h ****         functor();
 146:../mculib3/src/timers.h ****     }
 147:../mculib3/src/timers.h **** }
 148:../mculib3/src/timers.h **** 
 149:../mculib3/src/timers.h **** 
 150:../mculib3/src/timers.h **** 
 151:../mculib3/src/timers.h **** void Timer::stop()
 152:../mculib3/src/timers.h **** {
 153:../mculib3/src/timers.h ****     timePassed_ = 0;
 154:../mculib3/src/timers.h ****     tick_unsubscribe();
 155:../mculib3/src/timers.h **** }
 156:../mculib3/src/timers.h **** 
 157:../mculib3/src/timers.h **** 
 158:../mculib3/src/timers.h **** 
 159:../mculib3/src/timers.h **** bool     Timer::done()       { return timePassed_ >= timeSet; }
 702              		.loc 1 159 30 is_stmt 1 view -0
 703              		.cfi_startproc
 704              		@ args = 0, pretend = 0, frame = 0
 705              		@ frame_needed = 0, uses_anonymous_args = 0
 706              		@ link register save eliminated.
 707              		.loc 1 159 32 view .LVU182
 708              		.loc 1 159 39 is_stmt 0 view .LVU183
 709 0000 4269     		ldr	r2, [r0, #20]
 710              		.loc 1 159 54 view .LVU184
 711 0002 0369     		ldr	r3, [r0, #16]
 712 0004 0020     		movs	r0, #0
 713              	.LVL52:
 714              		.loc 1 159 54 view .LVU185
 715 0006 9A42     		cmp	r2, r3
 716 0008 4041     		adcs	r0, r0, r0
 717              		.loc 1 159 63 view .LVU186
 718              		@ sp needed
 719              		.loc 1 159 54 view .LVU187
 720 000a C0B2     		uxtb	r0, r0
 721              		.loc 1 159 63 view .LVU188
 722 000c 7047     		bx	lr
 723              		.cfi_endproc
 724              	.LFE3609:
 726              		.section	.text._ZN5Timer7isCountEv,"ax",%progbits
 727              		.align	1
 728              		.global	_ZN5Timer7isCountEv
 729              		.syntax unified
 730              		.code	16
 731              		.thumb_func
 732              		.fpu softvfp
 734              	_ZN5Timer7isCountEv:
 735              	.LVL53:
 736              	.LFB3612:
 160:../mculib3/src/timers.h **** void     Timer::pause()      { tick_unsubscribe(); }
 161:../mculib3/src/timers.h **** void     Timer::start()      { tick_subscribe();  }
 162:../mculib3/src/timers.h **** bool     Timer::isCount()    { return subscribed; }
 737              		.loc 1 162 30 is_stmt 1 view -0
 738              		.cfi_startproc
 739              		@ args = 0, pretend = 0, frame = 0
 740              		@ frame_needed = 0, uses_anonymous_args = 0
 741              		@ link register save eliminated.
ARM GAS  /tmp/ccm4IIvO.s 			page 40


 742              		.loc 1 162 32 view .LVU190
 743              		.loc 1 162 39 is_stmt 0 view .LVU191
 744 0000 007B     		ldrb	r0, [r0, #12]
 745              	.LVL54:
 746              		.loc 1 162 51 view .LVU192
 747              		@ sp needed
 748 0002 7047     		bx	lr
 749              		.cfi_endproc
 750              	.LFE3612:
 752              		.section	.text._ZN5Timer10timePassedEv,"ax",%progbits
 753              		.align	1
 754              		.global	_ZN5Timer10timePassedEv
 755              		.syntax unified
 756              		.code	16
 757              		.thumb_func
 758              		.fpu softvfp
 760              	_ZN5Timer10timePassedEv:
 761              	.LVL55:
 762              	.LFB3613:
 163:../mculib3/src/timers.h **** uint32_t Timer::timePassed() { return timePassed_; }
 763              		.loc 1 163 30 is_stmt 1 view -0
 764              		.cfi_startproc
 765              		@ args = 0, pretend = 0, frame = 0
 766              		@ frame_needed = 0, uses_anonymous_args = 0
 767              		@ link register save eliminated.
 768              		.loc 1 163 32 view .LVU194
 769              		.loc 1 163 39 is_stmt 0 view .LVU195
 770 0000 4069     		ldr	r0, [r0, #20]
 771              	.LVL56:
 772              		.loc 1 163 52 view .LVU196
 773              		@ sp needed
 774 0002 7047     		bx	lr
 775              		.cfi_endproc
 776              	.LFE3613:
 778              		.section	.text._ZN5Timer8timeLeftEv,"ax",%progbits
 779              		.align	1
 780              		.global	_ZN5Timer8timeLeftEv
 781              		.syntax unified
 782              		.code	16
 783              		.thumb_func
 784              		.fpu softvfp
 786              	_ZN5Timer8timeLeftEv:
 787              	.LVL57:
 788              	.LFB3614:
 164:../mculib3/src/timers.h **** uint32_t Timer::timeLeft(  ) { return timeSet - timePassed_; }
 789              		.loc 1 164 30 is_stmt 1 view -0
 790              		.cfi_startproc
 791              		@ args = 0, pretend = 0, frame = 0
 792              		@ frame_needed = 0, uses_anonymous_args = 0
 793              		@ link register save eliminated.
 794              		.loc 1 164 32 view .LVU198
 795              		.loc 1 164 39 is_stmt 0 view .LVU199
 796 0000 0369     		ldr	r3, [r0, #16]
 797              		.loc 1 164 49 view .LVU200
 798 0002 4069     		ldr	r0, [r0, #20]
 799              	.LVL58:
 800              		.loc 1 164 62 view .LVU201
ARM GAS  /tmp/ccm4IIvO.s 			page 41


 801              		@ sp needed
 802              		.loc 1 164 49 view .LVU202
 803 0004 181A     		subs	r0, r3, r0
 804              		.loc 1 164 62 view .LVU203
 805 0006 7047     		bx	lr
 806              		.cfi_endproc
 807              	.LFE3614:
 809              		.section	.text._ZN5Timer9isGreaterEm,"ax",%progbits
 810              		.align	1
 811              		.global	_ZN5Timer9isGreaterEm
 812              		.syntax unified
 813              		.code	16
 814              		.thumb_func
 815              		.fpu softvfp
 817              	_ZN5Timer9isGreaterEm:
 818              	.LVL59:
 819              	.LFB3615:
 165:../mculib3/src/timers.h **** bool     Timer::isGreater (uint32_t val) { return timePassed_ > val; }
 820              		.loc 1 165 42 is_stmt 1 view -0
 821              		.cfi_startproc
 822              		@ args = 0, pretend = 0, frame = 0
 823              		@ frame_needed = 0, uses_anonymous_args = 0
 824              		@ link register save eliminated.
 825              		.loc 1 165 44 view .LVU205
 826              		.loc 1 165 51 is_stmt 0 view .LVU206
 827 0000 4069     		ldr	r0, [r0, #20]
 828              	.LVL60:
 829              		.loc 1 165 70 view .LVU207
 830              		@ sp needed
 831              		.loc 1 165 65 view .LVU208
 832 0002 8142     		cmp	r1, r0
 833 0004 8041     		sbcs	r0, r0, r0
 834 0006 4042     		rsbs	r0, r0, #0
 835              		.loc 1 165 70 view .LVU209
 836 0008 7047     		bx	lr
 837              		.cfi_endproc
 838              	.LFE3615:
 840              		.section	.text._ZN14TickSubscriber16tick_unsubscribeEv,"ax",%progbits
 841              		.align	1
 842              		.global	_ZN14TickSubscriber16tick_unsubscribeEv
 843              		.syntax unified
 844              		.code	16
 845              		.thumb_func
 846              		.fpu softvfp
 848              	_ZN14TickSubscriber16tick_unsubscribeEv:
 849              	.LVL61:
 850              	.LFB3616:
 166:../mculib3/src/timers.h **** 
 167:../mculib3/src/timers.h **** 
 168:../mculib3/src/timers.h **** 
 169:../mculib3/src/timers.h **** void TickSubscriber::tick_unsubscribe()
 170:../mculib3/src/timers.h **** {
 851              		.loc 1 170 1 is_stmt 1 view -0
 852              		.cfi_startproc
 853              		@ args = 0, pretend = 0, frame = 0
 854              		@ frame_needed = 0, uses_anonymous_args = 0
 855              		@ link register save eliminated.
ARM GAS  /tmp/ccm4IIvO.s 			page 42


 171:../mculib3/src/timers.h ****     if (subscribed) {
 856              		.loc 1 171 5 view .LVU211
 857 0000 037B     		ldrb	r3, [r0, #12]
 858 0002 002B     		cmp	r3, #0
 859 0004 0DD0     		beq	.L39
 860              	.LVL62:
 861              	.LBB1853:
 862              	.LBI1853:
 169:../mculib3/src/timers.h **** {
 863              		.loc 1 169 6 view .LVU212
 864              	.LBB1854:
 172:../mculib3/src/timers.h ****         subscribed = false;
 865              		.loc 1 172 9 view .LVU213
 866              		.loc 1 172 20 is_stmt 0 view .LVU214
 867 0006 0023     		movs	r3, #0
 868              	.LBB1855:
 869              	.LBB1856:
 870              	.LBB1857:
  77:../mculib3/src/list.h ****       v.prev->next = v.next;
 871              		.loc 3 77 10 view .LVU215
 872 0008 4268     		ldr	r2, [r0, #4]
 873              	.LBE1857:
 874              	.LBE1856:
 875              	.LBE1855:
 876              		.loc 1 172 20 view .LVU216
 877 000a 0373     		strb	r3, [r0, #12]
 173:../mculib3/src/timers.h ****         tickUpdater.unsubscribe (*this);
 878              		.loc 1 173 9 is_stmt 1 view .LVU217
 879              	.LVL63:
 880              	.LBB1862:
 881              	.LBI1855:
  15:../mculib3/src/subscriber.h ****     // —Å—Å—ã–ª–∫–∞, —á—Ç–æ–±—ã –Ω–µ –∫–æ–ø–∏—Ä–æ–≤–∞–ª –∫–∞–∂–¥—ã–π subscriber –∏–∑ *this
 882              		.loc 8 15 10 view .LVU218
 883              	.LBE1862:
 884              	.LBE1854:
 885              	.LBE1853:
  15:../mculib3/src/subscriber.h ****     // —Å—Å—ã–ª–∫–∞, —á—Ç–æ–±—ã –Ω–µ –∫–æ–ø–∏—Ä–æ–≤–∞–ª –∫–∞–∂–¥—ã–π subscriber –∏–∑ *this
 886              		.loc 8 15 39 view .LVU219
 887              	.LBB1867:
 888              	.LBB1865:
 889              	.LBB1863:
 890              	.LBB1860:
 891              	.LBI1856:
  75:../mculib3/src/list.h **** {
 892              		.loc 3 75 6 view .LVU220
 893 000c 8368     		ldr	r3, [r0, #8]
 894              	.LBB1858:
  77:../mculib3/src/list.h ****       v.prev->next = v.next;
 895              		.loc 3 77 4 is_stmt 0 view .LVU221
 896 000e 002A     		cmp	r2, #0
 897 0010 0ED0     		beq	.L41
  77:../mculib3/src/list.h ****       v.prev->next = v.next;
 898              		.loc 3 77 15 view .LVU222
 899 0012 002B     		cmp	r3, #0
 900 0014 08D0     		beq	.L42
  78:../mculib3/src/list.h ****       v.next->prev = v.prev;
 901              		.loc 3 78 7 view .LVU223
ARM GAS  /tmp/ccm4IIvO.s 			page 43


 902 0016 9360     		str	r3, [r2, #8]
  79:../mculib3/src/list.h ****    } else if (v.next) {             // –µ—Å–ª–∏ –ø–µ—Ä–≤—ã–π
 903              		.loc 3 79 7 view .LVU224
 904 0018 8368     		ldr	r3, [r0, #8]
 905              	.L50:
  82:../mculib3/src/list.h ****       if (not first) last = nullptr;
 906              		.loc 3 82 7 view .LVU225
 907 001a 5A60     		str	r2, [r3, #4]
 908              	.L43:
  92:../mculib3/src/list.h ****    v.next = nullptr;
 909              		.loc 3 92 4 view .LVU226
 910 001c 0023     		movs	r3, #0
 911 001e 4360     		str	r3, [r0, #4]
  93:../mculib3/src/list.h **** 
 912              		.loc 3 93 4 view .LVU227
 913 0020 8360     		str	r3, [r0, #8]
 914              	.LVL64:
 915              	.L39:
  93:../mculib3/src/list.h **** 
 916              		.loc 3 93 4 view .LVU228
 917              	.LBE1858:
 918              	.LBE1860:
 919              	.LBE1863:
 920              	.LBE1865:
 921              	.LBE1867:
 174:../mculib3/src/timers.h ****     }
 175:../mculib3/src/timers.h **** }
 922              		.loc 1 175 1 view .LVU229
 923              		@ sp needed
 924 0022 7047     		bx	lr
 925              	.LVL65:
 926              	.L44:
 927              	.LBB1868:
 928              	.LBB1866:
 929              	.LBB1864:
 930              	.LBB1861:
 931              	.LBB1859:
  81:../mculib3/src/list.h ****       first->prev = nullptr;
 932              		.loc 3 81 7 view .LVU230
 933 0024 0B60     		str	r3, [r1]
 934 0026 F8E7     		b	.L50
 935              	.L42:
  85:../mculib3/src/list.h ****       last->next = nullptr;
 936              		.loc 3 85 7 view .LVU231
 937 0028 0449     		ldr	r1, .L51
  86:../mculib3/src/list.h ****       if (not last) first = nullptr;
 938              		.loc 3 86 7 view .LVU232
 939 002a 9360     		str	r3, [r2, #8]
  85:../mculib3/src/list.h ****       last->next = nullptr;
 940              		.loc 3 85 7 view .LVU233
 941 002c 4A60     		str	r2, [r1, #4]
 942 002e F5E7     		b	.L43
 943              	.L41:
 944 0030 0249     		ldr	r1, .L51
  80:../mculib3/src/list.h ****       first = v.next;
 945              		.loc 3 80 11 view .LVU234
 946 0032 002B     		cmp	r3, #0
ARM GAS  /tmp/ccm4IIvO.s 			page 44


 947 0034 F6D1     		bne	.L44
  89:../mculib3/src/list.h ****       last  = nullptr;
 948              		.loc 3 89 7 view .LVU235
 949 0036 0B60     		str	r3, [r1]
  90:../mculib3/src/list.h ****    }
 950              		.loc 3 90 7 view .LVU236
 951 0038 4B60     		str	r3, [r1, #4]
 952 003a EFE7     		b	.L43
 953              	.L52:
 954              		.align	2
 955              	.L51:
 956 003c 00000000 		.word	.LANCHOR0
 957              	.LBE1859:
 958              	.LBE1861:
 959              	.LBE1864:
 960              	.LBE1866:
 961              	.LBE1868:
 962              		.cfi_endproc
 963              	.LFE3616:
 965              		.section	.text._ZN6Buzzer6notifyEv,"axG",%progbits,_ZN6Buzzer6notifyEv,comdat
 966              		.align	1
 967              		.weak	_ZN6Buzzer6notifyEv
 968              		.syntax unified
 969              		.code	16
 970              		.thumb_func
 971              		.fpu softvfp
 973              	_ZN6Buzzer6notifyEv:
 974              	.LVL66:
 975              	.LFB4612:
 976              		.file 9 "../mculib3/src/buzzer.h"
   1:../mculib3/src/buzzer.h **** #include "pwm_.h"
   2:../mculib3/src/buzzer.h **** 
   3:../mculib3/src/buzzer.h **** class Buzzer : TickSubscriber
   4:../mculib3/src/buzzer.h **** {
   5:../mculib3/src/buzzer.h ****    PWM& pwm;
   6:../mculib3/src/buzzer.h **** 
   7:../mculib3/src/buzzer.h ****    uint16_t qty{0};
   8:../mculib3/src/buzzer.h ****    size_t cnt{0};
   9:../mculib3/src/buzzer.h ****    size_t tick{1};
  10:../mculib3/src/buzzer.h **** 
  11:../mculib3/src/buzzer.h **** public:
  12:../mculib3/src/buzzer.h **** 
  13:../mculib3/src/buzzer.h ****    Buzzer(PWM& pwm) : pwm {pwm} {
  14:../mculib3/src/buzzer.h ****       pwm.duty_cycle = 490;
  15:../mculib3/src/buzzer.h ****       pwm.frequency = 1047;
  16:../mculib3/src/buzzer.h ****    }
  17:../mculib3/src/buzzer.h ****    
  18:../mculib3/src/buzzer.h ****    void brief ()
  19:../mculib3/src/buzzer.h ****    {
  20:../mculib3/src/buzzer.h ****       tick = 50;
  21:../mculib3/src/buzzer.h ****       tick_subscribe();
  22:../mculib3/src/buzzer.h ****    }
  23:../mculib3/src/buzzer.h **** 
  24:../mculib3/src/buzzer.h ****    void longer ()
  25:../mculib3/src/buzzer.h ****    {
  26:../mculib3/src/buzzer.h ****       tick = 500;
  27:../mculib3/src/buzzer.h ****       tick_subscribe();
ARM GAS  /tmp/ccm4IIvO.s 			page 45


  28:../mculib3/src/buzzer.h ****    }
  29:../mculib3/src/buzzer.h **** 
  30:../mculib3/src/buzzer.h ****    void notify() override 
 977              		.loc 9 30 9 is_stmt 1 view -0
 978              		.cfi_startproc
 979              		@ args = 0, pretend = 0, frame = 0
 980              		@ frame_needed = 0, uses_anonymous_args = 0
  31:../mculib3/src/buzzer.h ****    {
  32:../mculib3/src/buzzer.h ****       if (not(cnt++ % tick)){
 981              		.loc 9 32 7 view .LVU238
  30:../mculib3/src/buzzer.h ****    {
 982              		.loc 9 30 9 is_stmt 0 view .LVU239
 983 0000 70B5     		push	{r4, r5, r6, lr}
 984              	.LCFI5:
 985              		.cfi_def_cfa_offset 16
 986              		.cfi_offset 4, -16
 987              		.cfi_offset 5, -12
 988              		.cfi_offset 6, -8
 989              		.cfi_offset 14, -4
  30:../mculib3/src/buzzer.h ****    {
 990              		.loc 9 30 9 view .LVU240
 991 0002 0400     		movs	r4, r0
 992              		.loc 9 32 15 view .LVU241
 993 0004 8069     		ldr	r0, [r0, #24]
 994              	.LVL67:
 995              		.loc 9 32 23 view .LVU242
 996 0006 E569     		ldr	r5, [r4, #28]
 997              		.loc 9 32 18 view .LVU243
 998 0008 461C     		adds	r6, r0, #1
 999              		.loc 9 32 21 view .LVU244
 1000 000a 2900     		movs	r1, r5
 1001              		.loc 9 32 18 view .LVU245
 1002 000c A661     		str	r6, [r4, #24]
 1003              		.loc 9 32 21 view .LVU246
 1004 000e FFF7FEFF 		bl	__aeabi_uidivmod
 1005              	.LVL68:
 1006              		.loc 9 32 7 view .LVU247
 1007 0012 0029     		cmp	r1, #0
 1008 0014 05D1     		bne	.L54
  33:../mculib3/src/buzzer.h ****          pwm.out_enable();
 1009              		.loc 9 33 10 is_stmt 1 view .LVU248
 1010 0016 2169     		ldr	r1, [r4, #16]
 1011              	.LVL69:
 1012              	.LBB1877:
 1013              	.LBI1877:
 1014              		.file 10 "../mculib3/src/pwm_.h"
   1:../mculib3/src/pwm_.h **** #pragma once
   2:../mculib3/src/pwm_.h **** 
   3:../mculib3/src/pwm_.h **** #include "periph_tim.h"
   4:../mculib3/src/pwm_.h **** #include "pin.h"
   5:../mculib3/src/pwm_.h **** #include "literals.h"
   6:../mculib3/src/pwm_.h **** 
   7:../mculib3/src/pwm_.h **** #if defined(USE_MOCK_TIM)
   8:../mculib3/src/pwm_.h **** using TIM = mock::TIM;
   9:../mculib3/src/pwm_.h **** #else
  10:../mculib3/src/pwm_.h **** using TIM = mcu::TIM;
  11:../mculib3/src/pwm_.h **** #endif
ARM GAS  /tmp/ccm4IIvO.s 			page 46


  12:../mculib3/src/pwm_.h **** 
  13:../mculib3/src/pwm_.h **** class PWM
  14:../mculib3/src/pwm_.h **** {
  15:../mculib3/src/pwm_.h ****    TIM &tim;
  16:../mculib3/src/pwm_.h ****    Pin &pin;
  17:../mculib3/src/pwm_.h ****    uint16_t CNT{0xFFFF};
  18:../mculib3/src/pwm_.h **** 
  19:../mculib3/src/pwm_.h ****    const TIM::Channel channel;
  20:../mculib3/src/pwm_.h ****    const TIM::EnableMask enable_mask;
  21:../mculib3/src/pwm_.h **** 
  22:../mculib3/src/pwm_.h ****    const uint16_t max_duty_cycle;
  23:../mculib3/src/pwm_.h ****    constexpr static uint16_t min_frequency{F_CPU / 0xFFFF};
  24:../mculib3/src/pwm_.h **** 
  25:../mculib3/src/pwm_.h ****    class Frequency
  26:../mculib3/src/pwm_.h ****    {
  27:../mculib3/src/pwm_.h ****       uint16_t value{0};
  28:../mculib3/src/pwm_.h ****       PWM &parent;
  29:../mculib3/src/pwm_.h **** 
  30:../mculib3/src/pwm_.h ****    public:
  31:../mculib3/src/pwm_.h ****       Frequency(PWM &parent) : parent{parent} {}
  32:../mculib3/src/pwm_.h ****       operator uint16_t() { return value; }
  33:../mculib3/src/pwm_.h ****       void operator+=(int16_t v) { operator=(value + v); }
  34:../mculib3/src/pwm_.h ****       void operator=(uint16_t v)
  35:../mculib3/src/pwm_.h ****       {
  36:../mculib3/src/pwm_.h ****          if ((v != value) and (v >= parent.min_frequency))
  37:../mculib3/src/pwm_.h ****          {
  38:../mculib3/src/pwm_.h ****             value = v;
  39:../mculib3/src/pwm_.h ****             parent.CNT = (F_CPU / value - 1) / 2;
  40:../mculib3/src/pwm_.h ****             parent.tim.set_auto_reload(parent.CNT);
  41:../mculib3/src/pwm_.h ****             parent.duty_cycle.update();
  42:../mculib3/src/pwm_.h ****          }
  43:../mculib3/src/pwm_.h ****       }
  44:../mculib3/src/pwm_.h ****    };
  45:../mculib3/src/pwm_.h **** 
  46:../mculib3/src/pwm_.h ****    class Duty_cycle
  47:../mculib3/src/pwm_.h ****    {
  48:../mculib3/src/pwm_.h ****       uint16_t value{0};
  49:../mculib3/src/pwm_.h ****       PWM &parent;
  50:../mculib3/src/pwm_.h **** 
  51:../mculib3/src/pwm_.h ****    public:
  52:../mculib3/src/pwm_.h ****       Duty_cycle(PWM &parent) : parent{parent} {}
  53:../mculib3/src/pwm_.h ****       operator uint16_t() { return value; }
  54:../mculib3/src/pwm_.h ****       uint16_t operator+=(int16_t v) { return operator=(value + v); }
  55:../mculib3/src/pwm_.h ****       uint16_t operator=(uint16_t v)
  56:../mculib3/src/pwm_.h ****       {
  57:../mculib3/src/pwm_.h ****          if ((v != value) and (v >= 0) and (v <= parent.max_duty_cycle))
  58:../mculib3/src/pwm_.h ****          {
  59:../mculib3/src/pwm_.h ****             value = v;
  60:../mculib3/src/pwm_.h ****             parent.tim.set_compare(parent.channel, parent.CNT * value / 1000);
  61:../mculib3/src/pwm_.h ****          }
  62:../mculib3/src/pwm_.h **** 
  63:../mculib3/src/pwm_.h ****          return v;
  64:../mculib3/src/pwm_.h ****       }
  65:../mculib3/src/pwm_.h ****       void update()
  66:../mculib3/src/pwm_.h ****       {
  67:../mculib3/src/pwm_.h ****          parent.tim.set_compare(parent.channel, parent.CNT * value / 1000);
  68:../mculib3/src/pwm_.h ****       }
ARM GAS  /tmp/ccm4IIvO.s 			page 47


  69:../mculib3/src/pwm_.h ****    };
  70:../mculib3/src/pwm_.h **** 
  71:../mculib3/src/pwm_.h **** public:
  72:../mculib3/src/pwm_.h ****    PWM(TIM &tim, Pin &pin, TIM::Channel channel, TIM::EnableMask enable_mask, uint16_t max_duty_cyc
  73:../mculib3/src/pwm_.h ****        : tim{tim}, pin{pin}, channel{channel}, enable_mask{enable_mask}, max_duty_cycle{max_duty_cy
  74:../mculib3/src/pwm_.h ****    {
  75:../mculib3/src/pwm_.h ****    }
  76:../mculib3/src/pwm_.h **** 
  77:../mculib3/src/pwm_.h ****    Frequency frequency{*this};
  78:../mculib3/src/pwm_.h ****    Duty_cycle duty_cycle{*this};
  79:../mculib3/src/pwm_.h **** 
  80:../mculib3/src/pwm_.h ****    template <mcu::Periph tim_, class Pin_>
  81:../mculib3/src/pwm_.h ****    static auto &make(uint16_t max_duty_cycle = 500)
  82:../mculib3/src/pwm_.h ****    {
  83:../mculib3/src/pwm_.h ****       TIM::pin_static_assert<tim_, Pin_>();
  84:../mculib3/src/pwm_.h **** 
  85:../mculib3/src/pwm_.h ****       constexpr auto pin_mode = TIM::pin_mode<tim_, Pin_>();
  86:../mculib3/src/pwm_.h ****       constexpr auto channel_ = TIM::channel<tim_, Pin_>();
  87:../mculib3/src/pwm_.h **** 
  88:../mculib3/src/pwm_.h ****       static PWM pwm{
  89:../mculib3/src/pwm_.h ****           mcu::make_reference<tim_>(),
  90:../mculib3/src/pwm_.h ****           Pin::make<Pin_, pin_mode>(),
  91:../mculib3/src/pwm_.h ****           TIM::channel<tim_, Pin_>(),
  92:../mculib3/src/pwm_.h ****           TIM::enable_mask<channel_>(),
  93:../mculib3/src/pwm_.h ****           max_duty_cycle};
  94:../mculib3/src/pwm_.h ****       mcu::make_reference<mcu::Periph::RCC>().clock_enable<tim_>();
  95:../mculib3/src/pwm_.h ****       pwm.tim.template set<channel_>(TIM::CompareMode::PWMmode)
  96:../mculib3/src/pwm_.h ****           .template preload_enable<channel_>()
  97:../mculib3/src/pwm_.h ****           .auto_reload_enable()
  98:../mculib3/src/pwm_.h **** #if defined (STM32F0)
  99:../mculib3/src/pwm_.h ****           .main_output_enable()
 100:../mculib3/src/pwm_.h **** #endif
 101:../mculib3/src/pwm_.h ****           .counter_enable();
 102:../mculib3/src/pwm_.h **** 
 103:../mculib3/src/pwm_.h ****       pwm.frequency = pwm.min_frequency;
 104:../mculib3/src/pwm_.h ****       // pwm.out_disable();
 105:../mculib3/src/pwm_.h ****       return pwm;
 106:../mculib3/src/pwm_.h ****    }
 107:../mculib3/src/pwm_.h **** 
 108:../mculib3/src/pwm_.h ****    // void duty_cycle(uint16_t v){tim.set_compare(channel, CNT*v/100);}
 109:../mculib3/src/pwm_.h ****    // void freq (uint16_t v){CNT = F_CPU / v; tim.set_auto_reload(CNT);}
 110:../mculib3/src/pwm_.h ****    void out_enable() { tim.compare_enable(enable_mask); }
 1015              		.loc 10 110 9 view .LVU249
 1016              	.LBB1878:
 1017              		.loc 10 110 24 view .LVU250
 1018 0018 0A68     		ldr	r2, [r1]
 1019              	.LVL70:
 1020              	.LBB1879:
 1021              	.LBI1879:
 1022              		.file 11 "../mculib3/src/periph/tim_f0_f4.h"
   1:../mculib3/src/periph/tim_f0_f4.h **** #pragma once
   2:../mculib3/src/periph/tim_f0_f4.h **** 
   3:../mculib3/src/periph/tim_f0_f4.h **** #include "periph.h"
   4:../mculib3/src/periph/tim_f0_f4.h **** #if   defined(STM32F0)
   5:../mculib3/src/periph/tim_f0_f4.h ****    #include "bits_tim_f0.h"
   6:../mculib3/src/periph/tim_f0_f4.h **** #elif defined(STM32F4)
   7:../mculib3/src/periph/tim_f0_f4.h ****    #include "bits_tim_f4.h"
ARM GAS  /tmp/ccm4IIvO.s 			page 48


   8:../mculib3/src/periph/tim_f0_f4.h **** #endif
   9:../mculib3/src/periph/tim_f0_f4.h **** #include "periph_rcc.h"
  10:../mculib3/src/periph/tim_f0_f4.h **** #include "pin.h"
  11:../mculib3/src/periph/tim_f0_f4.h **** #include <type_traits>
  12:../mculib3/src/periph/tim_f0_f4.h **** 
  13:../mculib3/src/periph/tim_f0_f4.h **** namespace mcu {
  14:../mculib3/src/periph/tim_f0_f4.h **** 
  15:../mculib3/src/periph/tim_f0_f4.h **** class TIM {
  16:../mculib3/src/periph/tim_f0_f4.h ****    volatile TIM_bits::CR1  CR1;  // control register 1,                     offset: 0x00
  17:../mculib3/src/periph/tim_f0_f4.h ****    volatile TIM_bits::CR2  CR2;  // control register 2,                     offset: 0x04
  18:../mculib3/src/periph/tim_f0_f4.h ****    volatile TIM_bits::SMCR SMCR; // slave Mode Control register,            offset: 0x08
  19:../mculib3/src/periph/tim_f0_f4.h ****    volatile TIM_bits::DIER DIER; // DMA/interrupt enable register,          offset: 0x0C
  20:../mculib3/src/periph/tim_f0_f4.h ****    volatile TIM_bits::SR   SR;   // status register,                        offset: 0x10
  21:../mculib3/src/periph/tim_f0_f4.h ****    volatile uint32_t       EGR;  // event generation register,              offset: 0x14
  22:../mculib3/src/periph/tim_f0_f4.h ****    volatile TIM_bits::CCMR CCMR; // capture/compare mode register,          offset: 0x18
  23:../mculib3/src/periph/tim_f0_f4.h ****    volatile TIM_bits::CCER CCER; // capture/compare enable register,        offset: 0x20
  24:../mculib3/src/periph/tim_f0_f4.h ****    volatile uint32_t       CNT;  // counter register,                       offset: 0x24
  25:../mculib3/src/periph/tim_f0_f4.h ****    volatile uint32_t       PSC;  // prescaler register,                     offset: 0x28
  26:../mculib3/src/periph/tim_f0_f4.h ****    volatile uint32_t       ARR;  // auto-reload register,                   offset: 0x2C
  27:../mculib3/src/periph/tim_f0_f4.h ****    volatile uint32_t       RCR;  // repetition counter register,            offset: 0x30
  28:../mculib3/src/periph/tim_f0_f4.h ****    volatile uint32_t       CCR1; // capture/compare registers 1-4,          offset: 0x34
  29:../mculib3/src/periph/tim_f0_f4.h ****    volatile uint32_t       CCR2; // capture/compare register 2,             offset: 0x38
  30:../mculib3/src/periph/tim_f0_f4.h ****    volatile uint32_t       CCR3; // capture/compare register 3,             offset: 0x3C
  31:../mculib3/src/periph/tim_f0_f4.h ****    volatile uint32_t       CCR4; // capture/compare register 4,             offset: 0x40
  32:../mculib3/src/periph/tim_f0_f4.h **** #if defined(STM32F0)
  33:../mculib3/src/periph/tim_f0_f4.h ****    volatile TIM_bits::BDTR BDTR; // break and dead-time register,           offset: 0x44
  34:../mculib3/src/periph/tim_f0_f4.h **** #elif defined(STM32F4)
  35:../mculib3/src/periph/tim_f0_f4.h ****    volatile uint32_t       res;  // break and dead-time register,           offset: 0x44
  36:../mculib3/src/periph/tim_f0_f4.h **** #endif
  37:../mculib3/src/periph/tim_f0_f4.h ****    volatile TIM_bits::DCR  DCR;  // DMA control register,                   offset: 0x48
  38:../mculib3/src/periph/tim_f0_f4.h ****    volatile uint32_t       DMAR; // DMA address for full transfer register, offset: 0x4C
  39:../mculib3/src/periph/tim_f0_f4.h ****    volatile uint32_t       OR;   // option register,                        offset: 0x50
  40:../mculib3/src/periph/tim_f0_f4.h **** public:
  41:../mculib3/src/periph/tim_f0_f4.h ****    auto& like_CMSIS() { return *reinterpret_cast<CMSIS_type*>(this); }
  42:../mculib3/src/periph/tim_f0_f4.h **** 
  43:../mculib3/src/periph/tim_f0_f4.h ****    using CMSIS_type           = TIM_TypeDef;
  44:../mculib3/src/periph/tim_f0_f4.h ****    using CompareMode          = TIM_bits::Output_t::CompareMode;
  45:../mculib3/src/periph/tim_f0_f4.h ****    using OnePulseMode         = TIM_bits::CR1::OnePulseMode;
  46:../mculib3/src/periph/tim_f0_f4.h ****    // using Direction            = TIM_bits::CR1::Direction;
  47:../mculib3/src/periph/tim_f0_f4.h ****    using SlaveMode            = TIM_bits::SMCR::SlaveMode;
  48:../mculib3/src/periph/tim_f0_f4.h ****    using Trigger              = TIM_bits::SMCR::Trigger;
  49:../mculib3/src/periph/tim_f0_f4.h ****    // using ExtTriggerPolarity   = TIM_bits::SMCR::ExtTriggerPolarity;
  50:../mculib3/src/periph/tim_f0_f4.h ****    using SelectionCompareMode = TIM_bits::SelectionCompareMode;
  51:../mculib3/src/periph/tim_f0_f4.h ****    using Polarity             = TIM_bits::CCER::Polarity;
  52:../mculib3/src/periph/tim_f0_f4.h ****    using Filter               = TIM_bits::Filter;
  53:../mculib3/src/periph/tim_f0_f4.h ****    enum Channel {_1 = 1, _2, _3, _4, error};
  54:../mculib3/src/periph/tim_f0_f4.h ****    enum EnableMask { 
  55:../mculib3/src/periph/tim_f0_f4.h ****       ch1 = TIM_CCER_CC1E_Msk,
  56:../mculib3/src/periph/tim_f0_f4.h ****       ch2 = TIM_CCER_CC2E_Msk,
  57:../mculib3/src/periph/tim_f0_f4.h ****       ch3 = TIM_CCER_CC3E_Msk,
  58:../mculib3/src/periph/tim_f0_f4.h ****       ch4 = TIM_CCER_CC4E_Msk
  59:../mculib3/src/periph/tim_f0_f4.h ****    };
  60:../mculib3/src/periph/tim_f0_f4.h ****    // enum InterruptMask { 
  61:../mculib3/src/periph/tim_f0_f4.h ****    //    ch1 = TIM_DIER_CC1IE_Msk,
  62:../mculib3/src/periph/tim_f0_f4.h ****    //    ch2 = TIM_DIER_CC2IE_Msk,
  63:../mculib3/src/periph/tim_f0_f4.h ****    //    ch3 = TIM_DIER_CC3IE_Msk,
  64:../mculib3/src/periph/tim_f0_f4.h ****    //    ch4 = TIM_DIER_CC4IE_Msk
ARM GAS  /tmp/ccm4IIvO.s 			page 49


  65:../mculib3/src/periph/tim_f0_f4.h ****    // };
  66:../mculib3/src/periph/tim_f0_f4.h **** 
  67:../mculib3/src/periph/tim_f0_f4.h ****    
  68:../mculib3/src/periph/tim_f0_f4.h ****    TIM&     counter_enable()                { CR1.CEN = true;     return *this; }
  69:../mculib3/src/periph/tim_f0_f4.h ****    TIM&     counter_disable()               { CR1.CEN = false;    return *this; }
  70:../mculib3/src/periph/tim_f0_f4.h ****    TIM&     set(OnePulseMode v)             { CR1.OPM = v;        return *this; }
  71:../mculib3/src/periph/tim_f0_f4.h ****    TIM&     update_disable()                { CR1.UDIS = true;    return *this; }
  72:../mculib3/src/periph/tim_f0_f4.h ****    TIM&     clear_counter()                 { CNT = 0;            return *this; }
  73:../mculib3/src/periph/tim_f0_f4.h ****    TIM&     set_counter (uint16_t v)        { CNT = v;            return *this; }
  74:../mculib3/src/periph/tim_f0_f4.h ****    TIM&     ext_clock_enable()              { SMCR.ECE = true;    return *this; }
  75:../mculib3/src/periph/tim_f0_f4.h ****    TIM&     ext_clock_disable()             { SMCR.ECE = false;   return *this; }
  76:../mculib3/src/periph/tim_f0_f4.h ****    TIM&     set_prescaller (uint16_t v)     { PSC = v;            return *this; }
  77:../mculib3/src/periph/tim_f0_f4.h ****    TIM&     auto_reload_enable()            { CR1.ARPE = true;    return *this; }
  78:../mculib3/src/periph/tim_f0_f4.h ****    TIM&     set (SlaveMode v)               { SMCR.SMS = v;       return *this; }
  79:../mculib3/src/periph/tim_f0_f4.h ****    TIM&     set (Trigger v)                 { SMCR.TS  = v;       return *this; }
  80:../mculib3/src/periph/tim_f0_f4.h ****    TIM&     set_auto_reload  (uint16_t v)   { ARR = v;            return *this; }
  81:../mculib3/src/periph/tim_f0_f4.h ****    TIM&     set_repetition   (uint16_t v)   { RCR = v;            return *this; }
  82:../mculib3/src/periph/tim_f0_f4.h ****    // TIM&     set_update_generation()         { EGR.UG = true;      return *this; }
  83:../mculib3/src/periph/tim_f0_f4.h ****    TIM&     update_interrupt_enable()       { DIER.UIE = true;    return *this; }
  84:../mculib3/src/periph/tim_f0_f4.h ****    TIM&     compare_enable   (uint32_t v)   { registr(CCER) |=  v; return *this; } // TODO ??????? 
 1023              		.loc 11 84 13 view .LVU251
 1024              	.LBB1880:
 1025              		.loc 11 84 47 view .LVU252
 1026              	.LBE1880:
 1027              	.LBE1879:
 1028              		.loc 10 110 54 is_stmt 0 view .LVU253
 1029 001a 8B89     		ldrh	r3, [r1, #12]
 1030              	.LVL71:
 1031              	.LBB1882:
 1032              	.LBB1881:
 1033              		.loc 11 84 61 view .LVU254
 1034 001c 106A     		ldr	r0, [r2, #32]
 1035 001e 0343     		orrs	r3, r0
 1036              	.LVL72:
 1037              		.loc 11 84 61 view .LVU255
 1038 0020 1362     		str	r3, [r2, #32]
 1039              		.loc 11 84 68 is_stmt 1 view .LVU256
 1040              	.LVL73:
 1041              	.L54:
 1042              		.loc 11 84 68 is_stmt 0 view .LVU257
 1043              	.LBE1881:
 1044              	.LBE1882:
 1045              	.LBE1878:
 1046              	.LBE1877:
  34:../mculib3/src/buzzer.h ****       }
  35:../mculib3/src/buzzer.h ****       if (cnt == tick) {
 1047              		.loc 9 35 7 is_stmt 1 view .LVU258
 1048 0022 AE42     		cmp	r6, r5
 1049 0024 0AD1     		bne	.L53
  36:../mculib3/src/buzzer.h ****          cnt = 0;
 1050              		.loc 9 36 10 view .LVU259
 1051              		.loc 9 36 14 is_stmt 0 view .LVU260
 1052 0026 0023     		movs	r3, #0
  37:../mculib3/src/buzzer.h ****          pwm.out_disable();
 1053              		.loc 9 37 10 view .LVU261
 1054 0028 2169     		ldr	r1, [r4, #16]
  36:../mculib3/src/buzzer.h ****          cnt = 0;
ARM GAS  /tmp/ccm4IIvO.s 			page 50


 1055              		.loc 9 36 14 view .LVU262
 1056 002a A361     		str	r3, [r4, #24]
 1057              		.loc 9 37 10 is_stmt 1 view .LVU263
 1058              	.LVL74:
 1059              	.LBB1883:
 1060              	.LBI1883:
 111:../mculib3/src/pwm_.h ****    void out_disable() { tim.compare_disable(enable_mask); }
 1061              		.loc 10 111 9 view .LVU264
 1062              	.LBB1884:
 1063              		.loc 10 111 25 view .LVU265
 1064 002c 0A68     		ldr	r2, [r1]
 1065              	.LVL75:
 1066              	.LBB1885:
 1067              	.LBI1885:
  85:../mculib3/src/periph/tim_f0_f4.h ****    TIM&     compare_disable  (uint32_t v)   { *reinterpret_cast<__IO uint32_t*>(&CCER) &= ~v; retur
 1068              		.loc 11 85 13 view .LVU266
 1069              	.LBB1886:
 1070              		.loc 11 85 47 view .LVU267
 1071              	.LBE1886:
 1072              	.LBE1885:
 1073              		.loc 10 111 56 is_stmt 0 view .LVU268
 1074 002e 8989     		ldrh	r1, [r1, #12]
 1075              	.LVL76:
 1076              	.LBB1889:
 1077              	.LBB1887:
 1078              		.loc 11 85 88 view .LVU269
 1079 0030 136A     		ldr	r3, [r2, #32]
 1080              	.LBE1887:
 1081              	.LBE1889:
 1082              	.LBE1884:
 1083              	.LBE1883:
  38:../mculib3/src/buzzer.h ****          tick_unsubscribe();
 1084              		.loc 9 38 26 view .LVU270
 1085 0032 2000     		movs	r0, r4
 1086              	.LBB1892:
 1087              	.LBB1891:
 1088              	.LBB1890:
 1089              	.LBB1888:
 1090              		.loc 11 85 88 view .LVU271
 1091 0034 8B43     		bics	r3, r1
 1092 0036 1362     		str	r3, [r2, #32]
 1093              		.loc 11 85 95 is_stmt 1 view .LVU272
 1094              	.LVL77:
 1095              		.loc 11 85 95 is_stmt 0 view .LVU273
 1096              	.LBE1888:
 1097              	.LBE1890:
 1098              	.LBE1891:
 1099              	.LBE1892:
 1100              		.loc 9 38 10 is_stmt 1 view .LVU274
 1101              		.loc 9 38 26 is_stmt 0 view .LVU275
 1102 0038 FFF7FEFF 		bl	_ZN14TickSubscriber16tick_unsubscribeEv
 1103              	.LVL78:
 1104              	.L53:
  39:../mculib3/src/buzzer.h ****       }
  40:../mculib3/src/buzzer.h ****    }  
 1105              		.loc 9 40 4 view .LVU276
 1106              		@ sp needed
ARM GAS  /tmp/ccm4IIvO.s 			page 51


 1107              	.LVL79:
 1108              		.loc 9 40 4 view .LVU277
 1109 003c 70BD     		pop	{r4, r5, r6, pc}
 1110              		.cfi_endproc
 1111              	.LFE4612:
 1113              		.section	.text._ZN5Timer4stopEv,"ax",%progbits
 1114              		.align	1
 1115              		.global	_ZN5Timer4stopEv
 1116              		.syntax unified
 1117              		.code	16
 1118              		.thumb_func
 1119              		.fpu softvfp
 1121              	_ZN5Timer4stopEv:
 1122              	.LVL80:
 1123              	.LFB3608:
 152:../mculib3/src/timers.h ****     timePassed_ = 0;
 1124              		.loc 1 152 1 is_stmt 1 view -0
 1125              		.cfi_startproc
 1126              		@ args = 0, pretend = 0, frame = 0
 1127              		@ frame_needed = 0, uses_anonymous_args = 0
 153:../mculib3/src/timers.h ****     tick_unsubscribe();
 1128              		.loc 1 153 5 view .LVU279
 153:../mculib3/src/timers.h ****     tick_unsubscribe();
 1129              		.loc 1 153 17 is_stmt 0 view .LVU280
 1130 0000 0023     		movs	r3, #0
 152:../mculib3/src/timers.h ****     timePassed_ = 0;
 1131              		.loc 1 152 1 view .LVU281
 1132 0002 10B5     		push	{r4, lr}
 1133              	.LCFI6:
 1134              		.cfi_def_cfa_offset 8
 1135              		.cfi_offset 4, -8
 1136              		.cfi_offset 14, -4
 153:../mculib3/src/timers.h ****     tick_unsubscribe();
 1137              		.loc 1 153 17 view .LVU282
 1138 0004 4361     		str	r3, [r0, #20]
 154:../mculib3/src/timers.h **** }
 1139              		.loc 1 154 5 is_stmt 1 view .LVU283
 154:../mculib3/src/timers.h **** }
 1140              		.loc 1 154 21 is_stmt 0 view .LVU284
 1141 0006 FFF7FEFF 		bl	_ZN14TickSubscriber16tick_unsubscribeEv
 1142              	.LVL81:
 155:../mculib3/src/timers.h **** 
 1143              		.loc 1 155 1 view .LVU285
 1144              		@ sp needed
 1145 000a 10BD     		pop	{r4, pc}
 1146              		.cfi_endproc
 1147              	.LFE3608:
 1149              		.section	.text._ZN5Timer5pauseEv,"ax",%progbits
 1150              		.align	1
 1151              		.global	_ZN5Timer5pauseEv
 1152              		.syntax unified
 1153              		.code	16
 1154              		.thumb_func
 1155              		.fpu softvfp
 1157              	_ZN5Timer5pauseEv:
 1158              	.LVL82:
 1159              	.LFB3610:
ARM GAS  /tmp/ccm4IIvO.s 			page 52


 160:../mculib3/src/timers.h **** void     Timer::start()      { tick_subscribe();  }
 1160              		.loc 1 160 30 is_stmt 1 view -0
 1161              		.cfi_startproc
 1162              		@ args = 0, pretend = 0, frame = 0
 1163              		@ frame_needed = 0, uses_anonymous_args = 0
 160:../mculib3/src/timers.h **** void     Timer::start()      { tick_subscribe();  }
 1164              		.loc 1 160 32 view .LVU287
 160:../mculib3/src/timers.h **** void     Timer::start()      { tick_subscribe();  }
 1165              		.loc 1 160 30 is_stmt 0 view .LVU288
 1166 0000 10B5     		push	{r4, lr}
 1167              	.LCFI7:
 1168              		.cfi_def_cfa_offset 8
 1169              		.cfi_offset 4, -8
 1170              		.cfi_offset 14, -4
 160:../mculib3/src/timers.h **** void     Timer::start()      { tick_subscribe();  }
 1171              		.loc 1 160 48 view .LVU289
 1172 0002 FFF7FEFF 		bl	_ZN14TickSubscriber16tick_unsubscribeEv
 1173              	.LVL83:
 160:../mculib3/src/timers.h **** void     Timer::start()      { tick_subscribe();  }
 1174              		.loc 1 160 52 view .LVU290
 1175              		@ sp needed
 1176 0006 10BD     		pop	{r4, pc}
 1177              		.cfi_endproc
 1178              	.LFE3610:
 1180              		.section	.text._ZN14TickSubscriber14tick_subscribeEv,"ax",%progbits
 1181              		.align	1
 1182              		.global	_ZN14TickSubscriber14tick_subscribeEv
 1183              		.syntax unified
 1184              		.code	16
 1185              		.thumb_func
 1186              		.fpu softvfp
 1188              	_ZN14TickSubscriber14tick_subscribeEv:
 1189              	.LVL84:
 1190              	.LFB3617:
 176:../mculib3/src/timers.h **** 
 177:../mculib3/src/timers.h **** 
 178:../mculib3/src/timers.h **** 
 179:../mculib3/src/timers.h **** void TickSubscriber::tick_subscribe()
 180:../mculib3/src/timers.h **** {
 1191              		.loc 1 180 1 is_stmt 1 view -0
 1192              		.cfi_startproc
 1193              		@ args = 0, pretend = 0, frame = 0
 1194              		@ frame_needed = 0, uses_anonymous_args = 0
 1195              		@ link register save eliminated.
 181:../mculib3/src/timers.h ****     if (not subscribed) {
 1196              		.loc 1 181 5 view .LVU292
 1197 0000 037B     		ldrb	r3, [r0, #12]
 1198 0002 002B     		cmp	r3, #0
 1199 0004 0CD1     		bne	.L58
 1200              	.LVL85:
 1201              	.LBB1899:
 1202              	.LBI1899:
 179:../mculib3/src/timers.h **** {
 1203              		.loc 1 179 6 view .LVU293
 1204              	.LBB1900:
 182:../mculib3/src/timers.h ****         subscribed = true;
 1205              		.loc 1 182 9 view .LVU294
ARM GAS  /tmp/ccm4IIvO.s 			page 53


 1206              		.loc 1 182 20 is_stmt 0 view .LVU295
 1207 0006 0133     		adds	r3, r3, #1
 1208 0008 0373     		strb	r3, [r0, #12]
 183:../mculib3/src/timers.h ****         tickUpdater.subscribe (*this);
 1209              		.loc 1 183 9 is_stmt 1 view .LVU296
 1210              	.LVL86:
 1211              	.LBB1901:
 1212              	.LBI1901:
  14:../mculib3/src/subscriber.h ****     void unsubscribe(Subscriber& v) { remove(v);    }
 1213              		.loc 8 14 10 view .LVU297
 1214              	.LBE1901:
 1215              	.LBE1900:
 1216              	.LBE1899:
  14:../mculib3/src/subscriber.h ****     void unsubscribe(Subscriber& v) { remove(v);    }
 1217              		.loc 8 14 39 view .LVU298
 1218              	.LBB1906:
 1219              	.LBB1905:
 1220              	.LBB1904:
 1221              	.LBB1902:
 1222              	.LBI1902:
  51:../mculib3/src/list.h **** {
 1223              		.loc 3 51 6 view .LVU299
 1224              	.LBB1903:
  53:../mculib3/src/list.h ****    if (last)
 1225              		.loc 3 53 13 is_stmt 0 view .LVU300
 1226 000a 064B     		ldr	r3, .L66
 1227 000c 5A68     		ldr	r2, [r3, #4]
  53:../mculib3/src/list.h ****    if (last)
 1228              		.loc 3 53 4 view .LVU301
 1229 000e 4260     		str	r2, [r0, #4]
  54:../mculib3/src/list.h ****       last->next = &v;
 1230              		.loc 3 54 4 view .LVU302
 1231 0010 002A     		cmp	r2, #0
 1232 0012 00D0     		beq	.L61
  55:../mculib3/src/list.h ****    last = &v;
 1233              		.loc 3 55 7 view .LVU303
 1234 0014 9060     		str	r0, [r2, #8]
 1235              	.L61:
  57:../mculib3/src/list.h ****       first = &v;
 1236              		.loc 3 57 4 view .LVU304
 1237 0016 1A68     		ldr	r2, [r3]
  56:../mculib3/src/list.h ****    if (not first)
 1238              		.loc 3 56 4 view .LVU305
 1239 0018 5860     		str	r0, [r3, #4]
  57:../mculib3/src/list.h ****       first = &v;
 1240              		.loc 3 57 4 view .LVU306
 1241 001a 002A     		cmp	r2, #0
 1242 001c 00D1     		bne	.L58
  58:../mculib3/src/list.h **** }
 1243              		.loc 3 58 7 view .LVU307
 1244 001e 1860     		str	r0, [r3]
 1245              	.LVL87:
 1246              	.L58:
  58:../mculib3/src/list.h **** }
 1247              		.loc 3 58 7 view .LVU308
 1248              	.LBE1903:
 1249              	.LBE1902:
ARM GAS  /tmp/ccm4IIvO.s 			page 54


 1250              	.LBE1904:
 1251              	.LBE1905:
 1252              	.LBE1906:
 184:../mculib3/src/timers.h ****     }
 185:../mculib3/src/timers.h **** }
 1253              		.loc 1 185 1 view .LVU309
 1254              		@ sp needed
 1255 0020 7047     		bx	lr
 1256              	.L67:
 1257 0022 C046     		.align	2
 1258              	.L66:
 1259 0024 00000000 		.word	.LANCHOR0
 1260              		.cfi_endproc
 1261              	.LFE3617:
 1263              		.section	.text._ZN5Timer5startEm,"ax",%progbits
 1264              		.align	1
 1265              		.global	_ZN5Timer5startEm
 1266              		.syntax unified
 1267              		.code	16
 1268              		.thumb_func
 1269              		.fpu softvfp
 1271              	_ZN5Timer5startEm:
 1272              	.LVL88:
 1273              	.LFB3605:
 121:../mculib3/src/timers.h ****     timeSet = ms;
 1274              		.loc 1 121 1 is_stmt 1 view -0
 1275              		.cfi_startproc
 1276              		@ args = 0, pretend = 0, frame = 0
 1277              		@ frame_needed = 0, uses_anonymous_args = 0
 122:../mculib3/src/timers.h ****     tick_subscribe();
 1278              		.loc 1 122 5 view .LVU311
 121:../mculib3/src/timers.h ****     timeSet = ms;
 1279              		.loc 1 121 1 is_stmt 0 view .LVU312
 1280 0000 10B5     		push	{r4, lr}
 1281              	.LCFI8:
 1282              		.cfi_def_cfa_offset 8
 1283              		.cfi_offset 4, -8
 1284              		.cfi_offset 14, -4
 122:../mculib3/src/timers.h ****     tick_subscribe();
 1285              		.loc 1 122 13 view .LVU313
 1286 0002 0161     		str	r1, [r0, #16]
 123:../mculib3/src/timers.h **** }
 1287              		.loc 1 123 5 is_stmt 1 view .LVU314
 123:../mculib3/src/timers.h **** }
 1288              		.loc 1 123 19 is_stmt 0 view .LVU315
 1289 0004 FFF7FEFF 		bl	_ZN14TickSubscriber14tick_subscribeEv
 1290              	.LVL89:
 124:../mculib3/src/timers.h **** 
 1291              		.loc 1 124 1 view .LVU316
 1292              		@ sp needed
 1293 0008 10BD     		pop	{r4, pc}
 1294              		.cfi_endproc
 1295              	.LFE3605:
 1297              		.section	.text._ZN5Timer5startEv,"ax",%progbits
 1298              		.align	1
 1299              		.global	_ZN5Timer5startEv
 1300              		.syntax unified
ARM GAS  /tmp/ccm4IIvO.s 			page 55


 1301              		.code	16
 1302              		.thumb_func
 1303              		.fpu softvfp
 1305              	_ZN5Timer5startEv:
 1306              	.LVL90:
 1307              	.LFB3611:
 161:../mculib3/src/timers.h **** bool     Timer::isCount()    { return subscribed; }
 1308              		.loc 1 161 30 is_stmt 1 view -0
 1309              		.cfi_startproc
 1310              		@ args = 0, pretend = 0, frame = 0
 1311              		@ frame_needed = 0, uses_anonymous_args = 0
 161:../mculib3/src/timers.h **** bool     Timer::isCount()    { return subscribed; }
 1312              		.loc 1 161 32 view .LVU318
 161:../mculib3/src/timers.h **** bool     Timer::isCount()    { return subscribed; }
 1313              		.loc 1 161 30 is_stmt 0 view .LVU319
 1314 0000 10B5     		push	{r4, lr}
 1315              	.LCFI9:
 1316              		.cfi_def_cfa_offset 8
 1317              		.cfi_offset 4, -8
 1318              		.cfi_offset 14, -4
 161:../mculib3/src/timers.h **** bool     Timer::isCount()    { return subscribed; }
 1319              		.loc 1 161 46 view .LVU320
 1320 0002 FFF7FEFF 		bl	_ZN14TickSubscriber14tick_subscribeEv
 1321              	.LVL91:
 161:../mculib3/src/timers.h **** bool     Timer::isCount()    { return subscribed; }
 1322              		.loc 1 161 51 view .LVU321
 1323              		@ sp needed
 1324 0006 10BD     		pop	{r4, pc}
 1325              		.cfi_endproc
 1326              	.LFE3611:
 1328              		.section	.text._ZN3PinaSEb,"axG",%progbits,_ZN3PinaSEb,comdat
 1329              		.align	1
 1330              		.weak	_ZN3PinaSEb
 1331              		.syntax unified
 1332              		.code	16
 1333              		.thumb_func
 1334              		.fpu softvfp
 1336              	_ZN3PinaSEb:
 1337              	.LVL92:
 1338              	.LFB3691:
 1339              		.file 12 "../mculib3/src/pin.h"
   1:../mculib3/src/pin.h **** #pragma once
   2:../mculib3/src/pin.h **** 
   3:../mculib3/src/pin.h **** #include "periph_gpio.h"
   4:../mculib3/src/pin.h **** #include "pins.h"
   5:../mculib3/src/pin.h **** #include "meta.h"
   6:../mculib3/src/pin.h **** 
   7:../mculib3/src/pin.h **** #if defined(USE_MOCK_GPIO)
   8:../mculib3/src/pin.h **** using GPIO = mock::GPIO;
   9:../mculib3/src/pin.h **** #else
  10:../mculib3/src/pin.h **** using GPIO = mcu::GPIO;
  11:../mculib3/src/pin.h **** #endif
  12:../mculib3/src/pin.h **** 
  13:../mculib3/src/pin.h **** class Pin
  14:../mculib3/src/pin.h **** {
  15:../mculib3/src/pin.h ****    GPIO &port;
  16:../mculib3/src/pin.h ****    const int n;
ARM GAS  /tmp/ccm4IIvO.s 			page 56


  17:../mculib3/src/pin.h **** 
  18:../mculib3/src/pin.h **** public:
  19:../mculib3/src/pin.h ****    Pin(GPIO &port, int n) : port{port}, n{n} {}
  20:../mculib3/src/pin.h **** 
  21:../mculib3/src/pin.h ****    template <class Pin_, mcu::PinMode mode = mcu::PinMode::Input>
  22:../mculib3/src/pin.h ****    static auto &make()
  23:../mculib3/src/pin.h ****    {
  24:../mculib3/src/pin.h ****       static Pin pin{mcu::make_reference<Pin_::periph>(), Pin_::n};
  25:../mculib3/src/pin.h ****       mcu::make_reference<mcu::Periph::RCC>()
  26:../mculib3/src/pin.h ****           .template clock_enable<Pin_::periph>();
  27:../mculib3/src/pin.h ****       pin.port.template init<Pin_, mode>();
  28:../mculib3/src/pin.h ****       return pin;
  29:../mculib3/src/pin.h ****    }
  30:../mculib3/src/pin.h **** 
  31:../mculib3/src/pin.h ****    void set() { port.set(n); }
  32:../mculib3/src/pin.h ****    void clear() { port.clear(n); }
  33:../mculib3/src/pin.h ****    bool is_set() { return port.is_set(n); }
  34:../mculib3/src/pin.h ****    void toggle() { port.toggle(n); }
  35:../mculib3/src/pin.h **** 
  36:../mculib3/src/pin.h ****    bool operator=(bool v)
 1340              		.loc 12 36 9 is_stmt 1 view -0
 1341              		.cfi_startproc
 1342              		@ args = 0, pretend = 0, frame = 0
 1343              		@ frame_needed = 0, uses_anonymous_args = 0
 1344              		@ link register save eliminated.
  37:../mculib3/src/pin.h ****    {
  38:../mculib3/src/pin.h ****       v ? set() : clear();
 1345              		.loc 12 38 7 view .LVU323
  36:../mculib3/src/pin.h ****    {
 1346              		.loc 12 36 9 is_stmt 0 view .LVU324
 1347 0000 0300     		movs	r3, r0
 1348 0002 0800     		movs	r0, r1
 1349              	.LVL93:
  36:../mculib3/src/pin.h ****    {
 1350              		.loc 12 36 9 view .LVU325
 1351 0004 06CB     		ldmia	r3!, {r1, r2}
 1352              	.LVL94:
  36:../mculib3/src/pin.h ****    {
 1353              		.loc 12 36 9 view .LVU326
 1354 0006 0123     		movs	r3, #1
 1355              	.LVL95:
 1356              		.loc 12 38 9 view .LVU327
 1357 0008 0028     		cmp	r0, #0
 1358 000a 02D0     		beq	.L71
 1359              	.L73:
 1360              	.LBB1915:
 1361              	.LBB1916:
 1362              	.LBB1917:
 1363              	.LBB1918:
 1364              		.file 13 "../mculib3/src/periph/gpio_f0_f4_f7.h"
   1:../mculib3/src/periph/gpio_f0_f4_f7.h **** #pragma once
   2:../mculib3/src/periph/gpio_f0_f4_f7.h **** 
   3:../mculib3/src/periph/gpio_f0_f4_f7.h **** #include "bits_gpio_f0_f4_f7.h"
   4:../mculib3/src/periph/gpio_f0_f4_f7.h **** 
   5:../mculib3/src/periph/gpio_f0_f4_f7.h **** namespace mcu
   6:../mculib3/src/periph/gpio_f0_f4_f7.h **** {
   7:../mculib3/src/periph/gpio_f0_f4_f7.h **** 
ARM GAS  /tmp/ccm4IIvO.s 			page 57


   8:../mculib3/src/periph/gpio_f0_f4_f7.h **** enum class PinMode
   9:../mculib3/src/periph/gpio_f0_f4_f7.h **** {
  10:../mculib3/src/periph/gpio_f0_f4_f7.h ****    Input,
  11:../mculib3/src/periph/gpio_f0_f4_f7.h ****    Output,
  12:../mculib3/src/periph/gpio_f0_f4_f7.h ****    Analog,
  13:../mculib3/src/periph/gpio_f0_f4_f7.h ****    Alternate_0,
  14:../mculib3/src/periph/gpio_f0_f4_f7.h ****    Alternate_1,
  15:../mculib3/src/periph/gpio_f0_f4_f7.h ****    Alternate_2,
  16:../mculib3/src/periph/gpio_f0_f4_f7.h ****    Alternate_3,
  17:../mculib3/src/periph/gpio_f0_f4_f7.h ****    Alternate_4,
  18:../mculib3/src/periph/gpio_f0_f4_f7.h ****    Alternate_5,
  19:../mculib3/src/periph/gpio_f0_f4_f7.h ****    Alternate_6,
  20:../mculib3/src/periph/gpio_f0_f4_f7.h ****    Alternate_7,
  21:../mculib3/src/periph/gpio_f0_f4_f7.h **** #if defined(STM32F4) or defined(STM32F7)
  22:../mculib3/src/periph/gpio_f0_f4_f7.h ****    Alternate_8,
  23:../mculib3/src/periph/gpio_f0_f4_f7.h ****    Alternate_9,
  24:../mculib3/src/periph/gpio_f0_f4_f7.h ****    Alternate_10,
  25:../mculib3/src/periph/gpio_f0_f4_f7.h ****    Alternate_11,
  26:../mculib3/src/periph/gpio_f0_f4_f7.h ****    Alternate_12,
  27:../mculib3/src/periph/gpio_f0_f4_f7.h ****    Alternate_13,
  28:../mculib3/src/periph/gpio_f0_f4_f7.h ****    Alternate_14,
  29:../mculib3/src/periph/gpio_f0_f4_f7.h ****    Alternate_15,
  30:../mculib3/src/periph/gpio_f0_f4_f7.h **** #endif
  31:../mculib3/src/periph/gpio_f0_f4_f7.h **** #if defined(STM32F4)
  32:../mculib3/src/periph/gpio_f0_f4_f7.h ****    USART1_TX = Alternate_7,
  33:../mculib3/src/periph/gpio_f0_f4_f7.h ****    USART1_RX = Alternate_7,
  34:../mculib3/src/periph/gpio_f0_f4_f7.h ****    USART2_TX = Alternate_7,
  35:../mculib3/src/periph/gpio_f0_f4_f7.h ****    USART2_RX = Alternate_7,
  36:../mculib3/src/periph/gpio_f0_f4_f7.h ****    USART3_TX = Alternate_7,
  37:../mculib3/src/periph/gpio_f0_f4_f7.h ****    USART3_RX = Alternate_7,
  38:../mculib3/src/periph/gpio_f0_f4_f7.h ****    USART4_TX = Alternate_8,
  39:../mculib3/src/periph/gpio_f0_f4_f7.h ****    USART4_RX = Alternate_8,
  40:../mculib3/src/periph/gpio_f0_f4_f7.h ****    USART5_TX = Alternate_8,
  41:../mculib3/src/periph/gpio_f0_f4_f7.h ****    USART5_RX = Alternate_8,
  42:../mculib3/src/periph/gpio_f0_f4_f7.h ****    USART6_TX = Alternate_8,
  43:../mculib3/src/periph/gpio_f0_f4_f7.h ****    USART6_RX = Alternate_8,
  44:../mculib3/src/periph/gpio_f0_f4_f7.h **** #endif
  45:../mculib3/src/periph/gpio_f0_f4_f7.h **** };
  46:../mculib3/src/periph/gpio_f0_f4_f7.h **** 
  47:../mculib3/src/periph/gpio_f0_f4_f7.h **** enum class PushPull
  48:../mculib3/src/periph/gpio_f0_f4_f7.h **** {
  49:../mculib3/src/periph/gpio_f0_f4_f7.h ****    No, Up, Down
  50:../mculib3/src/periph/gpio_f0_f4_f7.h **** };
  51:../mculib3/src/periph/gpio_f0_f4_f7.h **** 
  52:../mculib3/src/periph/gpio_f0_f4_f7.h **** class GPIO
  53:../mculib3/src/periph/gpio_f0_f4_f7.h **** {
  54:../mculib3/src/periph/gpio_f0_f4_f7.h ****    volatile GPIO_bits::MODER MODER;     // mode register,                offset: 0x00
  55:../mculib3/src/periph/gpio_f0_f4_f7.h ****    volatile GPIO_bits::OTYPER OTYPER;   // output type register,         offset: 0x04
  56:../mculib3/src/periph/gpio_f0_f4_f7.h ****    volatile GPIO_bits::OSPEEDR OSPEEDR; // output speed register,        offset: 0x08
  57:../mculib3/src/periph/gpio_f0_f4_f7.h ****    volatile GPIO_bits::PUPDR PUPDR;     // pull-up/pull-down register,   offset: 0x0C
  58:../mculib3/src/periph/gpio_f0_f4_f7.h ****    volatile GPIO_bits::DR IDR;          // input data register,          offset: 0x10
  59:../mculib3/src/periph/gpio_f0_f4_f7.h ****    volatile GPIO_bits::DR ODR;          // output data register,         offset: 0x14
  60:../mculib3/src/periph/gpio_f0_f4_f7.h ****    volatile uint32_t BSRR;              // bit set/reset register,       offset: 0x18
  61:../mculib3/src/periph/gpio_f0_f4_f7.h ****    volatile uint32_t LCKR;              // configuration lock register,  offset: 0x1C
  62:../mculib3/src/periph/gpio_f0_f4_f7.h ****    volatile GPIO_bits::AFR AFR;         // alternate function registers, offset: 0x20-0x24
  63:../mculib3/src/periph/gpio_f0_f4_f7.h **** #if defined(STM32F0)
  64:../mculib3/src/periph/gpio_f0_f4_f7.h ****    volatile uint32_t BRR; // bit reset register,           offset: 0x28
ARM GAS  /tmp/ccm4IIvO.s 			page 58


  65:../mculib3/src/periph/gpio_f0_f4_f7.h **** #endif
  66:../mculib3/src/periph/gpio_f0_f4_f7.h **** 
  67:../mculib3/src/periph/gpio_f0_f4_f7.h **** public:
  68:../mculib3/src/periph/gpio_f0_f4_f7.h ****    using CMSIS_type = GPIO_TypeDef;
  69:../mculib3/src/periph/gpio_f0_f4_f7.h ****    using PullResistor = GPIO_bits::PUPDR::PullResistor;
  70:../mculib3/src/periph/gpio_f0_f4_f7.h ****    using Mode = GPIO_bits::MODER::Mode;
  71:../mculib3/src/periph/gpio_f0_f4_f7.h ****    using AF = GPIO_bits::AFR::AF;
  72:../mculib3/src/periph/gpio_f0_f4_f7.h **** 
  73:../mculib3/src/periph/gpio_f0_f4_f7.h ****    auto &like_CMSIS() { return *reinterpret_cast<CMSIS_type *>(this); }
  74:../mculib3/src/periph/gpio_f0_f4_f7.h **** 
  75:../mculib3/src/periph/gpio_f0_f4_f7.h ****    void set(size_t n) { BSRR = (1 << n); }
  76:../mculib3/src/periph/gpio_f0_f4_f7.h ****    void clear(size_t n) { BSRR = (1 << (n + 16)); }
 1365              		.loc 13 76 37 view .LVU328
 1366 000c 9340     		lsls	r3, r3, r2
 1367              	.LBE1918:
 1368              	.LBE1917:
 1369              	.LBE1916:
 1370              	.LBE1915:
  39:../mculib3/src/pin.h ****       return v;
  40:../mculib3/src/pin.h ****    }
 1371              		.loc 12 40 4 view .LVU329
 1372              		@ sp needed
 1373              	.LBB1925:
 1374              	.LBB1923:
 1375              	.LBB1921:
 1376              	.LBB1919:
 1377              		.loc 13 76 32 view .LVU330
 1378 000e 8B61     		str	r3, [r1, #24]
 1379              	.LBE1919:
 1380              	.LBE1921:
 1381              	.LBE1923:
 1382              	.LBE1925:
  39:../mculib3/src/pin.h ****       return v;
 1383              		.loc 12 39 7 is_stmt 1 view .LVU331
 1384              		.loc 12 40 4 is_stmt 0 view .LVU332
 1385 0010 7047     		bx	lr
 1386              	.L71:
 1387              	.LVL96:
 1388              	.LBB1926:
 1389              	.LBI1915:
  32:../mculib3/src/pin.h ****    bool is_set() { return port.is_set(n); }
 1390              		.loc 12 32 9 is_stmt 1 view .LVU333
 1391              	.LBB1924:
  32:../mculib3/src/pin.h ****    bool is_set() { return port.is_set(n); }
 1392              		.loc 12 32 19 view .LVU334
 1393              	.LBB1922:
 1394              	.LBI1917:
 1395              		.loc 13 76 9 view .LVU335
 1396              	.LBB1920:
 1397              		.loc 13 76 27 view .LVU336
 1398              		.loc 13 76 43 is_stmt 0 view .LVU337
 1399 0012 1032     		adds	r2, r2, #16
 1400 0014 FAE7     		b	.L73
 1401              	.LBE1920:
 1402              	.LBE1922:
 1403              	.LBE1924:
 1404              	.LBE1926:
ARM GAS  /tmp/ccm4IIvO.s 			page 59


 1405              		.cfi_endproc
 1406              	.LFE3691:
 1408              		.section	.text._ZN3mcu3DMA21clear_interrupt_flagsENS0_7ChannelE,"ax",%progbits
 1409              		.align	1
 1410              		.global	_ZN3mcu3DMA21clear_interrupt_flagsENS0_7ChannelE
 1411              		.syntax unified
 1412              		.code	16
 1413              		.thumb_func
 1414              		.fpu softvfp
 1416              	_ZN3mcu3DMA21clear_interrupt_flagsENS0_7ChannelE:
 1417              	.LVL97:
 1418              	.LFB3715:
 1419              		.file 14 "../mculib3/src/periph/dma_f0.h"
   1:../mculib3/src/periph/dma_f0.h **** #pragma once
   2:../mculib3/src/periph/dma_f0.h **** 
   3:../mculib3/src/periph/dma_f0.h **** #include "bits_dma_f0.h"
   4:../mculib3/src/periph/dma_f0.h **** #include  <cstring>
   5:../mculib3/src/periph/dma_f0.h **** 
   6:../mculib3/src/periph/dma_f0.h **** namespace mcu {
   7:../mculib3/src/periph/dma_f0.h **** 
   8:../mculib3/src/periph/dma_f0.h **** class DMA
   9:../mculib3/src/periph/dma_f0.h **** {
  10:../mculib3/src/periph/dma_f0.h ****     volatile DMA_bits::ISR  ISR;  // DMA interrupt status register     offset: 0x00
  11:../mculib3/src/periph/dma_f0.h ****     volatile DMA_bits::IFCR IFCR; // DMA interrupt flag clear register offset: 0x04
  12:../mculib3/src/periph/dma_f0.h **** 
  13:../mculib3/src/periph/dma_f0.h **** public:
  14:../mculib3/src/periph/dma_f0.h ****     using CMSIS_type = DMA_TypeDef;
  15:../mculib3/src/periph/dma_f0.h ****     enum class Channel { _1 = 1, _2, _3, _4, _5, error };
  16:../mculib3/src/periph/dma_f0.h **** 
  17:../mculib3/src/periph/dma_f0.h ****     auto& like_CMSIS() { return *reinterpret_cast<CMSIS_type*>(this); }
  18:../mculib3/src/periph/dma_f0.h **** 
  19:../mculib3/src/periph/dma_f0.h ****     void clear_interrupt_flags         (Channel);
  20:../mculib3/src/periph/dma_f0.h ****     bool is_transfer_complete_interrupt(Channel);
  21:../mculib3/src/periph/dma_f0.h **** };
  22:../mculib3/src/periph/dma_f0.h **** 
  23:../mculib3/src/periph/dma_f0.h **** #if not defined(USE_MOCK_DMA)
  24:../mculib3/src/periph/dma_f0.h **** // template <Periph dma> std::enable_if_t<dma == Periph::DMA1, DMA&> make_reference() {return *rein
  25:../mculib3/src/periph/dma_f0.h **** template <Periph dma> std::enable_if_t<dma == Periph::DMA1, DMA&> make_reference() {return *new((vo
  26:../mculib3/src/periph/dma_f0.h **** #endif
  27:../mculib3/src/periph/dma_f0.h **** 
  28:../mculib3/src/periph/dma_f0.h **** 
  29:../mculib3/src/periph/dma_f0.h **** 
  30:../mculib3/src/periph/dma_f0.h **** 
  31:../mculib3/src/periph/dma_f0.h **** 
  32:../mculib3/src/periph/dma_f0.h **** 
  33:../mculib3/src/periph/dma_f0.h **** 
  34:../mculib3/src/periph/dma_f0.h **** 
  35:../mculib3/src/periph/dma_f0.h **** void DMA::clear_interrupt_flags(Channel v)
  36:../mculib3/src/periph/dma_f0.h **** {
 1420              		.loc 14 36 1 is_stmt 1 view -0
 1421              		.cfi_startproc
 1422              		@ args = 0, pretend = 0, frame = 0
 1423              		@ frame_needed = 0, uses_anonymous_args = 0
 1424              		@ link register save eliminated.
  37:../mculib3/src/periph/dma_f0.h ****     // -fno-strict-volatile-bitfields dosent work
  38:../mculib3/src/periph/dma_f0.h ****     // if      (v == Channel::_1) IFCR.CGIF1 = true;
  39:../mculib3/src/periph/dma_f0.h ****     // else if (v == Channel::_2) IFCR.CGIF2 = true;
ARM GAS  /tmp/ccm4IIvO.s 			page 60


  40:../mculib3/src/periph/dma_f0.h ****     // else if (v == Channel::_3) IFCR.CGIF3 = true;
  41:../mculib3/src/periph/dma_f0.h ****     // else if (v == Channel::_4) IFCR.CGIF4 = true;
  42:../mculib3/src/periph/dma_f0.h ****     // else if (v == Channel::_5) IFCR.CGIF5 = true;
  43:../mculib3/src/periph/dma_f0.h ****     registr(IFCR) = (1 << ((static_cast<uint8_t>(v) - 1)*4));
 1425              		.loc 14 43 5 view .LVU339
 1426              		.loc 14 43 24 is_stmt 0 view .LVU340
 1427 0000 0123     		movs	r3, #1
 1428              		.loc 14 43 53 view .LVU341
 1429 0002 C9B2     		uxtb	r1, r1
 1430              	.LVL98:
 1431              		.loc 14 43 53 view .LVU342
 1432 0004 0139     		subs	r1, r1, #1
 1433              		.loc 14 43 57 view .LVU343
 1434 0006 8900     		lsls	r1, r1, #2
 1435              		.loc 14 43 24 view .LVU344
 1436 0008 8B40     		lsls	r3, r3, r1
  44:../mculib3/src/periph/dma_f0.h **** }
 1437              		.loc 14 44 1 view .LVU345
 1438              		@ sp needed
  43:../mculib3/src/periph/dma_f0.h **** }
 1439              		.loc 14 43 19 view .LVU346
 1440 000a 4360     		str	r3, [r0, #4]
 1441              		.loc 14 44 1 view .LVU347
 1442 000c 7047     		bx	lr
 1443              		.cfi_endproc
 1444              	.LFE3715:
 1446              		.section	.text._ZN3mcu3DMA30is_transfer_complete_interruptENS0_7ChannelE,"ax",%progbits
 1447              		.align	1
 1448              		.global	_ZN3mcu3DMA30is_transfer_complete_interruptENS0_7ChannelE
 1449              		.syntax unified
 1450              		.code	16
 1451              		.thumb_func
 1452              		.fpu softvfp
 1454              	_ZN3mcu3DMA30is_transfer_complete_interruptENS0_7ChannelE:
 1455              	.LVL99:
 1456              	.LFB3717:
  45:../mculib3/src/periph/dma_f0.h **** 
  46:../mculib3/src/periph/dma_f0.h **** bool DMA::is_transfer_complete_interrupt(Channel v)
  47:../mculib3/src/periph/dma_f0.h **** {
 1457              		.loc 14 47 1 is_stmt 1 view -0
 1458              		.cfi_startproc
 1459              		@ args = 0, pretend = 0, frame = 0
 1460              		@ frame_needed = 0, uses_anonymous_args = 0
 1461              		@ link register save eliminated.
  48:../mculib3/src/periph/dma_f0.h ****     // -fno-strict-volatile-bitfields dosent work
  49:../mculib3/src/periph/dma_f0.h ****     // if      (v == Channel::_1) return ISR.TCIF1;
  50:../mculib3/src/periph/dma_f0.h ****     // else if (v == Channel::_2) return ISR.TCIF2;
  51:../mculib3/src/periph/dma_f0.h ****     // else if (v == Channel::_3) return ISR.TCIF3;
  52:../mculib3/src/periph/dma_f0.h ****     // else if (v == Channel::_4) return ISR.TCIF4;
  53:../mculib3/src/periph/dma_f0.h ****     // else if (v == Channel::_5) return ISR.TCIF5;
  54:../mculib3/src/periph/dma_f0.h ****     // else return false;
  55:../mculib3/src/periph/dma_f0.h ****     return registr(ISR) & (1 << (1 + (static_cast<uint8_t>(v) - 1)*4));
 1462              		.loc 14 55 5 view .LVU349
 1463              		.loc 14 55 30 is_stmt 0 view .LVU350
 1464 0000 0123     		movs	r3, #1
 1465              		.loc 14 55 63 view .LVU351
 1466 0002 C9B2     		uxtb	r1, r1
ARM GAS  /tmp/ccm4IIvO.s 			page 61


 1467              	.LVL100:
 1468              		.loc 14 55 67 view .LVU352
 1469 0004 8900     		lsls	r1, r1, #2
 1470              		.loc 14 55 36 view .LVU353
 1471 0006 0339     		subs	r1, r1, #3
 1472              		.loc 14 55 30 view .LVU354
 1473 0008 8B40     		lsls	r3, r3, r1
 1474              		.loc 14 55 19 view .LVU355
 1475 000a 0068     		ldr	r0, [r0]
 1476              	.LVL101:
  56:../mculib3/src/periph/dma_f0.h **** }
 1477              		.loc 14 56 1 view .LVU356
 1478              		@ sp needed
  55:../mculib3/src/periph/dma_f0.h **** }
 1479              		.loc 14 55 25 view .LVU357
 1480 000c 1840     		ands	r0, r3
  55:../mculib3/src/periph/dma_f0.h **** }
 1481              		.loc 14 55 70 view .LVU358
 1482 000e 431E     		subs	r3, r0, #1
 1483 0010 9841     		sbcs	r0, r0, r3
 1484 0012 C0B2     		uxtb	r0, r0
 1485              		.loc 14 56 1 view .LVU359
 1486 0014 7047     		bx	lr
 1487              		.cfi_endproc
 1488              	.LFE3717:
 1490              		.global	__aeabi_uidiv
 1491              		.global	__aeabi_idiv
 1492              		.section	.text._ZN3mcu5USART3setENS0_8BaudrateENS_6PeriphE,"ax",%progbits
 1493              		.align	1
 1494              		.global	_ZN3mcu5USART3setENS0_8BaudrateENS_6PeriphE
 1495              		.syntax unified
 1496              		.code	16
 1497              		.thumb_func
 1498              		.fpu softvfp
 1500              	_ZN3mcu5USART3setENS0_8BaudrateENS_6PeriphE:
 1501              	.LVL102:
 1502              	.LFB3794:
 1503              		.file 15 "../mculib3/src/periph/usart_f0.h"
   1:../mculib3/src/periph/usart_f0.h **** #pragma once
   2:../mculib3/src/periph/usart_f0.h **** 
   3:../mculib3/src/periph/usart_f0.h **** #include <type_traits>
   4:../mculib3/src/periph/usart_f0.h **** #include "bits_usart_f0.h"
   5:../mculib3/src/periph/usart_f0.h **** #include "periph_rcc.h"
   6:../mculib3/src/periph/usart_f0.h **** #include "pin.h"
   7:../mculib3/src/periph/usart_f0.h **** #include "meta.h"
   8:../mculib3/src/periph/usart_f0.h **** 
   9:../mculib3/src/periph/usart_f0.h **** namespace mcu {
  10:../mculib3/src/periph/usart_f0.h **** 
  11:../mculib3/src/periph/usart_f0.h **** class USART {
  12:../mculib3/src/periph/usart_f0.h ****    volatile USART_bits::CR1 CR1;  // Control register 1,                offset: 0x00 
  13:../mculib3/src/periph/usart_f0.h ****    volatile USART_bits::CR2 CR2;  // Control register 2,                offset: 0x04 
  14:../mculib3/src/periph/usart_f0.h ****    volatile USART_bits::CR3 CR3;  // Control register 3,                offset: 0x08
  15:../mculib3/src/periph/usart_f0.h ****    volatile uint32_t        BRR;  // Baud rate register,                offset: 0x0C
  16:../mculib3/src/periph/usart_f0.h ****    volatile uint32_t        GTPR; // Guard time and prescaler register, offset: 0x10
  17:../mculib3/src/periph/usart_f0.h ****    volatile uint32_t        RTOR; // Receiver Time Out register,        offset: 0x14  
  18:../mculib3/src/periph/usart_f0.h ****    volatile uint32_t        RQR;  // Request register,                  offset: 0x18
  19:../mculib3/src/periph/usart_f0.h ****    volatile USART_bits::SR  ISR;  // Interrupt and status register,     offset: 0x1C
ARM GAS  /tmp/ccm4IIvO.s 			page 62


  20:../mculib3/src/periph/usart_f0.h ****    volatile USART_bits::SR  ICR;  // Interrupt flag Clear register,     offset: 0x20
  21:../mculib3/src/periph/usart_f0.h ****    volatile uint32_t        RDR;  // Receive Data register,             offset: 0x24
  22:../mculib3/src/periph/usart_f0.h ****    volatile uint32_t        TDR;  // Transmit Data register,            offset: 0x28
  23:../mculib3/src/periph/usart_f0.h **** 
  24:../mculib3/src/periph/usart_f0.h **** public:
  25:../mculib3/src/periph/usart_f0.h ****    using CMSIS_type     = USART_TypeDef;
  26:../mculib3/src/periph/usart_f0.h ****    using Parity         = USART_bits::CR1::Parity;
  27:../mculib3/src/periph/usart_f0.h ****    using DataBits       = USART_bits::CR1::DataBits;
  28:../mculib3/src/periph/usart_f0.h ****    using StopBits       = USART_bits::CR2::StopBits;
  29:../mculib3/src/periph/usart_f0.h **** 
  30:../mculib3/src/periph/usart_f0.h ****    enum Baudrate {
  31:../mculib3/src/periph/usart_f0.h ****       BR9600   = 0b000, // modbus time 4 ms
  32:../mculib3/src/periph/usart_f0.h ****       BR14400  = 0b001, // modbus time 3 ms
  33:../mculib3/src/periph/usart_f0.h ****       BR19200  = 0b010, // modbus time 2 ms
  34:../mculib3/src/periph/usart_f0.h ****       BR28800  = 0b011, // modbus time 2 ms
  35:../mculib3/src/periph/usart_f0.h ****       BR38400  = 0b100, // modbus time 2 ms
  36:../mculib3/src/periph/usart_f0.h ****       BR57600  = 0b101, // modbus time 2 ms
  37:../mculib3/src/periph/usart_f0.h ****       BR76800  = 0b110, // modbus time 2 ms
  38:../mculib3/src/periph/usart_f0.h ****       BR115200 = 0b111  // modbus time 2 ms
  39:../mculib3/src/periph/usart_f0.h ****    };
  40:../mculib3/src/periph/usart_f0.h **** 
  41:../mculib3/src/periph/usart_f0.h ****    auto& like_CMSIS() { return *reinterpret_cast<CMSIS_type*>(this); }
  42:../mculib3/src/periph/usart_f0.h **** 
  43:../mculib3/src/periph/usart_f0.h ****    USART& set (Parity         v)         {CR1.PS    = v; return *this;}
  44:../mculib3/src/periph/usart_f0.h ****    USART& set (DataBits       v)         {CR1.M0    = v; return *this;}
  45:../mculib3/src/periph/usart_f0.h ****    USART& set (StopBits       v)         {CR2.STOP  = v; return *this;}
  46:../mculib3/src/periph/usart_f0.h ****    USART& set (Baudrate, Periph);
  47:../mculib3/src/periph/usart_f0.h **** 
  48:../mculib3/src/periph/usart_f0.h ****    USART& enable        (){CR1.UE   = true;  return *this;}
  49:../mculib3/src/periph/usart_f0.h ****    USART& disable       (){CR1.UE   = false; return *this;}
  50:../mculib3/src/periph/usart_f0.h ****    USART& rx_enable     (){CR1.RE   = true;  return *this;}
  51:../mculib3/src/periph/usart_f0.h ****    USART& rx_disable    (){CR1.RE   = false; return *this;}
  52:../mculib3/src/periph/usart_f0.h ****    USART& tx_enable     (){CR1.TE   = true;  return *this;}
  53:../mculib3/src/periph/usart_f0.h ****    USART& tx_disable    (){CR1.TE   = false; return *this;}
  54:../mculib3/src/periph/usart_f0.h ****    USART& rts_enable    (){CR3.RTSE = true;  return *this;}
  55:../mculib3/src/periph/usart_f0.h ****    USART& rts_disable   (){CR3.RTSE = false; return *this;}
  56:../mculib3/src/periph/usart_f0.h ****    USART& DMA_tx_enable (){CR3.DMAT = true;  return *this;}
  57:../mculib3/src/periph/usart_f0.h ****    USART& DMA_rx_enable (){CR3.DMAR = true;  return *this;}
  58:../mculib3/src/periph/usart_f0.h ****    USART& parity_enable (){CR1.PCE  = true;  return *this;}
  59:../mculib3/src/periph/usart_f0.h ****    USART& parity_disable(){CR1.PCE  = false; return *this;}
  60:../mculib3/src/periph/usart_f0.h ****    USART& parity_enable (bool enable){enable ? parity_enable() : parity_disable(); return *this;}
  61:../mculib3/src/periph/usart_f0.h **** 
  62:../mculib3/src/periph/usart_f0.h ****    USART& enable_IDLE_interrupt (bool v = true) {CR1.IDLEIE = v;  return *this;}
  63:../mculib3/src/periph/usart_f0.h ****    bool   is_IDLE_interrupt              (){return ISR.IDLE;}
  64:../mculib3/src/periph/usart_f0.h ****    USART& enable_tx_complete_interrupt   (){CR1.TCIE   = true;  return *this;}
  65:../mculib3/src/periph/usart_f0.h ****    USART& disable_tx_complete_interrupt  (){CR1.TCIE   = false; return *this;}
  66:../mculib3/src/periph/usart_f0.h ****    bool   is_tx_complete                 (){return ISR.TC;}
  67:../mculib3/src/periph/usart_f0.h ****    bool   is_tx_complete_interrupt_enable(){return CR1.TCIE;}
  68:../mculib3/src/periph/usart_f0.h **** 
  69:../mculib3/src/periph/usart_f0.h ****    
  70:../mculib3/src/periph/usart_f0.h ****    USART& clear_interrupt_flags()
  71:../mculib3/src/periph/usart_f0.h ****    {
  72:../mculib3/src/periph/usart_f0.h ****       *reinterpret_cast<volatile uint32_t*>(&ICR) = 0xFFFFFFFF;
  73:../mculib3/src/periph/usart_f0.h ****       return *this;
  74:../mculib3/src/periph/usart_f0.h ****    }
  75:../mculib3/src/periph/usart_f0.h **** 
  76:../mculib3/src/periph/usart_f0.h ****    size_t receive_data_adr () {return reinterpret_cast<size_t>(&RDR);}
ARM GAS  /tmp/ccm4IIvO.s 			page 63


  77:../mculib3/src/periph/usart_f0.h ****    size_t transmit_data_adr() {return reinterpret_cast<size_t>(&TDR);}
  78:../mculib3/src/periph/usart_f0.h **** 
  79:../mculib3/src/periph/usart_f0.h ****    
  80:../mculib3/src/periph/usart_f0.h ****    template<class Pin> static constexpr Periph default_stream();
  81:../mculib3/src/periph/usart_f0.h ****    template<class Pin> static constexpr PinMode pin_mode();
  82:../mculib3/src/periph/usart_f0.h ****    template<Periph usart, class TXpin, class RXpin> static void pin_static_assert();
  83:../mculib3/src/periph/usart_f0.h **** };
  84:../mculib3/src/periph/usart_f0.h **** 
  85:../mculib3/src/periph/usart_f0.h **** 
  86:../mculib3/src/periph/usart_f0.h **** 
  87:../mculib3/src/periph/usart_f0.h **** #if not defined(USE_MOCK_USART)
  88:../mculib3/src/periph/usart_f0.h **** SFINAE(USART1,USART) make_reference() {return *reinterpret_cast<USART*>(USART1_BASE);}
  89:../mculib3/src/periph/usart_f0.h **** #endif
  90:../mculib3/src/periph/usart_f0.h **** 
  91:../mculib3/src/periph/usart_f0.h **** 
  92:../mculib3/src/periph/usart_f0.h **** 
  93:../mculib3/src/periph/usart_f0.h **** 
  94:../mculib3/src/periph/usart_f0.h **** 
  95:../mculib3/src/periph/usart_f0.h **** 
  96:../mculib3/src/periph/usart_f0.h **** 
  97:../mculib3/src/periph/usart_f0.h **** 
  98:../mculib3/src/periph/usart_f0.h **** 
  99:../mculib3/src/periph/usart_f0.h **** 
 100:../mculib3/src/periph/usart_f0.h **** 
 101:../mculib3/src/periph/usart_f0.h **** 
 102:../mculib3/src/periph/usart_f0.h **** 
 103:../mculib3/src/periph/usart_f0.h **** 
 104:../mculib3/src/periph/usart_f0.h **** 
 105:../mculib3/src/periph/usart_f0.h **** 
 106:../mculib3/src/periph/usart_f0.h **** 
 107:../mculib3/src/periph/usart_f0.h **** USART& USART::set (Baudrate baudrate, Periph p)
 108:../mculib3/src/periph/usart_f0.h **** {
 1504              		.loc 15 108 1 is_stmt 1 view -0
 1505              		.cfi_startproc
 1506              		@ args = 0, pretend = 0, frame = 0
 1507              		@ frame_needed = 0, uses_anonymous_args = 0
 109:../mculib3/src/periph/usart_f0.h ****    auto clock = REF(RCC).clock(p);
 1508              		.loc 15 109 4 view .LVU361
 1509              	.LBB1931:
 1510              	.LBI1931:
 1511              		.file 16 "../mculib3/src/periph/rcc_f0.h"
   1:../mculib3/src/periph/rcc_f0.h **** #pragma once
   2:../mculib3/src/periph/rcc_f0.h **** 
   3:../mculib3/src/periph/rcc_f0.h **** #include "bits_rcc_f0.h"
   4:../mculib3/src/periph/rcc_f0.h **** 
   5:../mculib3/src/periph/rcc_f0.h **** namespace mcu {
   6:../mculib3/src/periph/rcc_f0.h **** 
   7:../mculib3/src/periph/rcc_f0.h **** class RCC {
   8:../mculib3/src/periph/rcc_f0.h **** 	volatile RCC_bits::CR      CR;         // clock control register,                offset: 0x00
   9:../mculib3/src/periph/rcc_f0.h **** 	volatile RCC_bits::CFGR    CFGR;       // clock configuration register,          offset: 0x04
  10:../mculib3/src/periph/rcc_f0.h **** 	volatile uint32_t          CIR;        // clock interrupt register,              offset: 0x08
  11:../mculib3/src/periph/rcc_f0.h **** 	volatile uint32_t          APB2RSTR;   // APB2 peripheral reset register,        offset: 0x0C
  12:../mculib3/src/periph/rcc_f0.h **** 	volatile uint32_t          APB1RSTR;   // APB1 peripheral reset register,        offset: 0x10
  13:../mculib3/src/periph/rcc_f0.h **** 	volatile RCC_bits::AHBENR  AHBENR;     // AHB peripheral clock register,         offset: 0x14
  14:../mculib3/src/periph/rcc_f0.h **** 	volatile RCC_bits::APB2ENR APB2ENR;    // APB2 peripheral clock enable register, offset: 0x18
  15:../mculib3/src/periph/rcc_f0.h **** 	volatile RCC_bits::APB1ENR APB1ENR;    // APB1 peripheral clock enable register, offset: 0x1C
  16:../mculib3/src/periph/rcc_f0.h **** 	volatile RCC_bits::BDCR    BDCR;       // Backup domain control register,        offset: 0x20
ARM GAS  /tmp/ccm4IIvO.s 			page 64


  17:../mculib3/src/periph/rcc_f0.h **** 	volatile RCC_bits::CSR     CSR;        // clock control & status register,       offset: 0x24
  18:../mculib3/src/periph/rcc_f0.h **** 	volatile uint32_t          AHBRSTR;    // AHB peripheral reset register,         offset: 0x28
  19:../mculib3/src/periph/rcc_f0.h **** 	volatile uint32_t          CFGR2;      // clock configuration register 2,        offset: 0x2C
  20:../mculib3/src/periph/rcc_f0.h **** 	volatile uint32_t          CFGR3;      // clock configuration register 3,        offset: 0x30
  21:../mculib3/src/periph/rcc_f0.h **** 	volatile uint32_t          CR2;        // clock control register 2,              offset: 0x34
  22:../mculib3/src/periph/rcc_f0.h **** 
  23:../mculib3/src/periph/rcc_f0.h **** 
  24:../mculib3/src/periph/rcc_f0.h **** public:
  25:../mculib3/src/periph/rcc_f0.h **** 	using CMSIS_type    = RCC_TypeDef;
  26:../mculib3/src/periph/rcc_f0.h **** 	using AHBprescaler  = RCC_bits::CFGR::AHBprescaler;
  27:../mculib3/src/periph/rcc_f0.h **** 	using APBprescaler  = RCC_bits::CFGR::APBprescaler;
  28:../mculib3/src/periph/rcc_f0.h **** 	using SystemClock   = RCC_bits::CFGR::SystemClock;
  29:../mculib3/src/periph/rcc_f0.h **** 	using PLLsource     = RCC_bits::CFGR::PLLsource;
  30:../mculib3/src/periph/rcc_f0.h **** 	using PLLmultiplier = RCC_bits::CFGR::PLLmultiplier;
  31:../mculib3/src/periph/rcc_f0.h **** 	using RTC_Clock     = RCC_bits::BDCR::Clock;
  32:../mculib3/src/periph/rcc_f0.h **** 	using Drive         = RCC_bits::BDCR::Drive;
  33:../mculib3/src/periph/rcc_f0.h **** 
  34:../mculib3/src/periph/rcc_f0.h **** 	auto& like_CMSIS() { return *reinterpret_cast<CMSIS_type*>(this); }
  35:../mculib3/src/periph/rcc_f0.h **** 
  36:../mculib3/src/periph/rcc_f0.h **** 	RCC& set (AHBprescaler  v) { CFGR.HPRE   = v; return *this; }
  37:../mculib3/src/periph/rcc_f0.h **** 	RCC& set (APBprescaler  v) { CFGR.PPRE   = v; return *this; }
  38:../mculib3/src/periph/rcc_f0.h **** 	RCC& set (SystemClock   v) { CFGR.SW     = v; return *this; }
  39:../mculib3/src/periph/rcc_f0.h **** 	RCC& set (PLLsource     v) { CFGR.PLLSRC = v; return *this; }
  40:../mculib3/src/periph/rcc_f0.h **** 	RCC& set (PLLmultiplier v) { CFGR.PLLMUL = v; return *this; }
  41:../mculib3/src/periph/rcc_f0.h **** 	RCC& set (RTC_Clock     v) { BDCR.RTCSEL = v; return *this; }
  42:../mculib3/src/periph/rcc_f0.h **** 	RCC& set (Drive         v) { BDCR.LSEDRV = v; return *this; }
  43:../mculib3/src/periph/rcc_f0.h **** 
  44:../mculib3/src/periph/rcc_f0.h **** 	RCC& on_HSE        () { CR.HSEON = true;         return *this; }
  45:../mculib3/src/periph/rcc_f0.h **** 	RCC& wait_HSE_ready() { while (not CR.HSERDY) {} return *this; }
  46:../mculib3/src/periph/rcc_f0.h **** 	RCC& on_PLL        () { CR.PLLON = true;         return *this; }
  47:../mculib3/src/periph/rcc_f0.h **** 	RCC& wait_PLL_ready() { while (not CR.PLLRDY) {} return *this; }
  48:../mculib3/src/periph/rcc_f0.h **** 	RCC& on_LSE        () { BDCR.LSEON = true;       return *this; }
  49:../mculib3/src/periph/rcc_f0.h **** 	RCC& wait_LSE_ready() { while (not BDCR.LSERDY){}return *this; }
  50:../mculib3/src/periph/rcc_f0.h **** 	RCC& on_LSI        () { CSR.LSION = true;        return *this; }
  51:../mculib3/src/periph/rcc_f0.h **** 	RCC& wait_LSI_ready() {while (not CSR.LSIRDY) {} return *this; }
  52:../mculib3/src/periph/rcc_f0.h **** 	RCC& backup_domain_reset(bool reset) { BDCR.BDRST = reset; return *this; }
  53:../mculib3/src/periph/rcc_f0.h **** 	bool clock_running () {return BDCR.RTCEN;}
  54:../mculib3/src/periph/rcc_f0.h **** 
  55:../mculib3/src/periph/rcc_f0.h **** 	size_t get_APB_clock()
  56:../mculib3/src/periph/rcc_f0.h **** 	{
  57:../mculib3/src/periph/rcc_f0.h **** 		auto v = CFGR.PPRE;
  58:../mculib3/src/periph/rcc_f0.h **** 		return v == APBprescaler::APBnotdiv ? F_CPU     :
  59:../mculib3/src/periph/rcc_f0.h **** 				 v == APBprescaler::APBdiv2   ? F_CPU / 2 :
  60:../mculib3/src/periph/rcc_f0.h **** 				 v == APBprescaler::APBdiv4   ? F_CPU / 4 :
  61:../mculib3/src/periph/rcc_f0.h **** 				 v == APBprescaler::APBdiv8   ? F_CPU / 8 :
  62:../mculib3/src/periph/rcc_f0.h **** 														  F_CPU / 16;
  63:../mculib3/src/periph/rcc_f0.h **** 	}
  64:../mculib3/src/periph/rcc_f0.h **** 
  65:../mculib3/src/periph/rcc_f0.h **** 	template<Periph p> void clock_enable()
  66:../mculib3/src/periph/rcc_f0.h **** 	{
  67:../mculib3/src/periph/rcc_f0.h **** 		if      constexpr (p == Periph::GPIOA)  AHBENR .IOPAEN  = true;
  68:../mculib3/src/periph/rcc_f0.h **** 		else if constexpr (p == Periph::GPIOB)  AHBENR .IOPBEN  = true;
  69:../mculib3/src/periph/rcc_f0.h **** 		else if constexpr (p == Periph::GPIOC)  AHBENR .IOPCEN  = true;
  70:../mculib3/src/periph/rcc_f0.h **** 		else if constexpr (p == Periph::GPIOD)  AHBENR .IOPDEN  = true;
  71:../mculib3/src/periph/rcc_f0.h **** 		else if constexpr (p == Periph::GPIOF)  AHBENR .IOPFEN  = true;
  72:../mculib3/src/periph/rcc_f0.h **** 
  73:../mculib3/src/periph/rcc_f0.h **** 		else if constexpr (p == Periph::USART1) APB2ENR.USART1EN  = true;
ARM GAS  /tmp/ccm4IIvO.s 			page 65


  74:../mculib3/src/periph/rcc_f0.h **** 
  75:../mculib3/src/periph/rcc_f0.h **** 		else if constexpr (p == Periph::TIM1)   APB2ENR.TIM1EN  = true;
  76:../mculib3/src/periph/rcc_f0.h **** 		else if constexpr (p == Periph::TIM3)   APB1ENR.TIM3EN  = true;
  77:../mculib3/src/periph/rcc_f0.h **** 		else if constexpr (p == Periph::TIM14)  APB1ENR.TIM14EN = true;
  78:../mculib3/src/periph/rcc_f0.h **** 		else if constexpr (p == Periph::TIM16)  APB2ENR.TIM16EN = true;
  79:../mculib3/src/periph/rcc_f0.h **** 		else if constexpr (p == Periph::TIM17)  APB2ENR.TIM17EN = true;
  80:../mculib3/src/periph/rcc_f0.h **** 
  81:../mculib3/src/periph/rcc_f0.h **** 		else if constexpr (p == Periph::DMA1)         AHBENR.DMAEN = true;
  82:../mculib3/src/periph/rcc_f0.h **** 		else if constexpr (p == Periph::DMA1_stream1) AHBENR.DMAEN = true;
  83:../mculib3/src/periph/rcc_f0.h **** 		else if constexpr (p == Periph::DMA1_stream2) AHBENR.DMAEN = true;
  84:../mculib3/src/periph/rcc_f0.h **** 		else if constexpr (p == Periph::DMA1_stream3) AHBENR.DMAEN = true;
  85:../mculib3/src/periph/rcc_f0.h **** 		else if constexpr (p == Periph::DMA1_stream4) AHBENR.DMAEN = true;
  86:../mculib3/src/periph/rcc_f0.h **** 		else if constexpr (p == Periph::DMA1_stream5) AHBENR.DMAEN = true;
  87:../mculib3/src/periph/rcc_f0.h **** 
  88:../mculib3/src/periph/rcc_f0.h **** 		else if constexpr (p == Periph::ADC1)   APB2ENR.ADC1EN = true;
  89:../mculib3/src/periph/rcc_f0.h **** 
  90:../mculib3/src/periph/rcc_f0.h **** 		else if constexpr (p == Periph::SYSCFG) APB2ENR.SYSCFGEN = true;
  91:../mculib3/src/periph/rcc_f0.h **** 
  92:../mculib3/src/periph/rcc_f0.h **** 		else if constexpr (p == Periph::RTC)    BDCR.RTCEN = true;
  93:../mculib3/src/periph/rcc_f0.h **** 
  94:../mculib3/src/periph/rcc_f0.h **** 		else if constexpr (p == Periph::PWR)    APB1ENR.PWREN = true;
  95:../mculib3/src/periph/rcc_f0.h **** 		
  96:../mculib3/src/periph/rcc_f0.h ****         else static_assert ( always_false_v<decltype(p)>, "–¥–æ–ø–∏—à–∏ clock_enable");
  97:../mculib3/src/periph/rcc_f0.h **** 	}
  98:../mculib3/src/periph/rcc_f0.h **** 
  99:../mculib3/src/periph/rcc_f0.h **** 	auto clock (Periph p) { return get_APB_clock(); }
 1512              		.loc 16 99 7 view .LVU362
 1513              		.loc 16 99 7 is_stmt 0 view .LVU363
 1514              	.LBE1931:
 1515              		.loc 16 99 26 is_stmt 1 view .LVU364
 1516              	.LBB1942:
 1517              	.LBB1932:
 1518              	.LBI1932:
  55:../mculib3/src/periph/rcc_f0.h **** 	{
 1519              		.loc 16 55 9 view .LVU365
 1520              	.LBB1933:
  57:../mculib3/src/periph/rcc_f0.h **** 		return v == APBprescaler::APBnotdiv ? F_CPU     :
 1521              		.loc 16 57 3 view .LVU366
  57:../mculib3/src/periph/rcc_f0.h **** 		return v == APBprescaler::APBnotdiv ? F_CPU     :
 1522              		.loc 16 57 17 is_stmt 0 view .LVU367
 1523 0000 1C4B     		ldr	r3, .L97
 1524              	.LBE1933:
 1525              	.LBE1932:
 1526              	.LBE1942:
 108:../mculib3/src/periph/usart_f0.h ****    auto clock = REF(RCC).clock(p);
 1527              		.loc 15 108 1 view .LVU368
 1528 0002 10B5     		push	{r4, lr}
 1529              	.LCFI10:
 1530              		.cfi_def_cfa_offset 8
 1531              		.cfi_offset 4, -8
 1532              		.cfi_offset 14, -4
 1533              	.LBB1943:
 1534              	.LBB1938:
 1535              	.LBB1934:
  57:../mculib3/src/periph/rcc_f0.h **** 		return v == APBprescaler::APBnotdiv ? F_CPU     :
 1536              		.loc 16 57 17 view .LVU369
 1537 0004 5B68     		ldr	r3, [r3, #4]
ARM GAS  /tmp/ccm4IIvO.s 			page 66


 1538              	.LBE1934:
 1539              	.LBE1938:
 1540              	.LBE1943:
 108:../mculib3/src/periph/usart_f0.h ****    auto clock = REF(RCC).clock(p);
 1541              		.loc 15 108 1 view .LVU370
 1542 0006 0400     		movs	r4, r0
 1543              	.LBB1944:
 1544              	.LBB1939:
 1545              	.LBB1935:
  57:../mculib3/src/periph/rcc_f0.h **** 		return v == APBprescaler::APBnotdiv ? F_CPU     :
 1546              		.loc 16 57 17 view .LVU371
 1547 0008 5B05     		lsls	r3, r3, #21
 1548              	.LBE1935:
 1549              	.LBE1939:
 1550              	.LBE1944:
 108:../mculib3/src/periph/usart_f0.h ****    auto clock = REF(RCC).clock(p);
 1551              		.loc 15 108 1 view .LVU372
 1552 000a 0800     		movs	r0, r1
 1553              	.LVL103:
 1554              	.LBB1945:
 1555              	.LBB1940:
 1556              	.LBB1936:
  57:../mculib3/src/periph/rcc_f0.h **** 		return v == APBprescaler::APBnotdiv ? F_CPU     :
 1557              		.loc 16 57 17 view .LVU373
 1558 000c 5B0F     		lsrs	r3, r3, #29
 1559              	.LVL104:
  58:../mculib3/src/periph/rcc_f0.h **** 				 v == APBprescaler::APBdiv2   ? F_CPU / 2 :
 1560              		.loc 16 58 3 is_stmt 1 view .LVU374
  58:../mculib3/src/periph/rcc_f0.h **** 				 v == APBprescaler::APBdiv2   ? F_CPU / 2 :
 1561              		.loc 16 58 39 is_stmt 0 view .LVU375
 1562 000e 12D0     		beq	.L88
 1563 0010 042B     		cmp	r3, #4
 1564 0012 12D0     		beq	.L89
 1565 0014 052B     		cmp	r3, #5
 1566 0016 12D0     		beq	.L90
 1567 0018 063B     		subs	r3, r3, #6
 1568 001a 5A42     		rsbs	r2, r3, #0
 1569 001c 5341     		adcs	r3, r3, r2
 1570              	.LVL105:
  58:../mculib3/src/periph/rcc_f0.h **** 				 v == APBprescaler::APBdiv2   ? F_CPU / 2 :
 1571              		.loc 16 58 39 view .LVU376
 1572 001e 164A     		ldr	r2, .L97+4
 1573 0020 5B42     		rsbs	r3, r3, #0
 1574 0022 1340     		ands	r3, r2
 1575 0024 9B18     		adds	r3, r3, r2
 1576              	.L77:
 1577              	.LVL106:
  58:../mculib3/src/periph/rcc_f0.h **** 				 v == APBprescaler::APBdiv2   ? F_CPU / 2 :
 1578              		.loc 16 58 39 view .LVU377
 1579              	.LBE1936:
 1580              	.LBE1940:
 1581              	.LBE1945:
 110:../mculib3/src/periph/usart_f0.h ****    switch (baudrate) {
 1582              		.loc 15 110 4 is_stmt 1 view .LVU378
 1583 0026 0728     		cmp	r0, #7
 1584 0028 11D8     		bhi	.L78
 1585 002a FFF7FEFF 		bl	__gnu_thumb1_case_uqi
ARM GAS  /tmp/ccm4IIvO.s 			page 67


 1586              	.L80:
 1587 002e 0A       		.byte	(.L87-.L80)/2
 1588 002f 12       		.byte	(.L86-.L80)/2
 1589 0030 14       		.byte	(.L85-.L80)/2
 1590 0031 17       		.byte	(.L84-.L80)/2
 1591 0032 19       		.byte	(.L83-.L80)/2
 1592 0033 1C       		.byte	(.L82-.L80)/2
 1593 0034 1E       		.byte	(.L81-.L80)/2
 1594 0035 21       		.byte	(.L79-.L80)/2
 1595              	.LVL107:
 1596              		.p2align 1
 1597              	.L88:
 1598              	.LBB1946:
 1599              	.LBB1941:
 1600              	.LBB1937:
  58:../mculib3/src/periph/rcc_f0.h **** 				 v == APBprescaler::APBdiv2   ? F_CPU / 2 :
 1601              		.loc 16 58 39 is_stmt 0 view .LVU379
 1602 0036 114B     		ldr	r3, .L97+8
 1603 0038 F5E7     		b	.L77
 1604              	.L89:
 1605 003a 114B     		ldr	r3, .L97+12
 1606 003c F3E7     		b	.L77
 1607              	.L90:
 1608 003e 114B     		ldr	r3, .L97+16
 1609 0040 F1E7     		b	.L77
 1610              	.LVL108:
 1611              	.L87:
  58:../mculib3/src/periph/rcc_f0.h **** 				 v == APBprescaler::APBdiv2   ? F_CPU / 2 :
 1612              		.loc 16 58 39 view .LVU380
 1613              	.LBE1937:
 1614              	.LBE1941:
 1615              	.LBE1946:
 111:../mculib3/src/periph/usart_f0.h ****       case BR9600:   BRR = clock/9600  ; break; 
 1616              		.loc 15 111 7 is_stmt 1 view .LVU381
 1617              		.loc 15 111 22 view .LVU382
 1618              		.loc 15 111 33 is_stmt 0 view .LVU383
 1619 0042 9621     		movs	r1, #150
 1620              	.LVL109:
 1621              	.L94:
 112:../mculib3/src/periph/usart_f0.h ****       case BR14400:  BRR = clock/14400 ; break;
 1622              		.loc 15 112 33 view .LVU384
 1623 0044 8901     		lsls	r1, r1, #6
 1624              	.L92:
 113:../mculib3/src/periph/usart_f0.h ****       case BR19200:  BRR = clock/19200 ; break;
 114:../mculib3/src/periph/usart_f0.h ****       case BR28800:  BRR = clock/28800 ; break;
 115:../mculib3/src/periph/usart_f0.h ****       case BR38400:  BRR = clock/38400 ; break;
 116:../mculib3/src/periph/usart_f0.h ****       case BR57600:  BRR = clock/57600 ; break;
 117:../mculib3/src/periph/usart_f0.h ****       case BR76800:  BRR = clock/76800 ; break;
 118:../mculib3/src/periph/usart_f0.h ****       case BR115200: BRR = clock/115200; break;
 1625              		.loc 15 118 33 view .LVU385
 1626 0046 1800     		movs	r0, r3
 1627 0048 FFF7FEFF 		bl	__aeabi_uidiv
 1628              	.LVL110:
 1629              		.loc 15 118 26 view .LVU386
 1630 004c E060     		str	r0, [r4, #12]
 1631              		.loc 15 118 42 is_stmt 1 view .LVU387
 1632              	.L78:
ARM GAS  /tmp/ccm4IIvO.s 			page 68


 119:../mculib3/src/periph/usart_f0.h ****    }
 120:../mculib3/src/periph/usart_f0.h ****    return *this;
 1633              		.loc 15 120 4 view .LVU388
 121:../mculib3/src/periph/usart_f0.h **** }
 1634              		.loc 15 121 1 is_stmt 0 view .LVU389
 1635 004e 2000     		movs	r0, r4
 1636              		@ sp needed
 1637              	.LVL111:
 1638              		.loc 15 121 1 view .LVU390
 1639 0050 10BD     		pop	{r4, pc}
 1640              	.LVL112:
 1641              	.L86:
 112:../mculib3/src/periph/usart_f0.h ****       case BR19200:  BRR = clock/19200 ; break;
 1642              		.loc 15 112 7 is_stmt 1 view .LVU391
 112:../mculib3/src/periph/usart_f0.h ****       case BR19200:  BRR = clock/19200 ; break;
 1643              		.loc 15 112 22 view .LVU392
 112:../mculib3/src/periph/usart_f0.h ****       case BR19200:  BRR = clock/19200 ; break;
 1644              		.loc 15 112 33 is_stmt 0 view .LVU393
 1645 0052 E121     		movs	r1, #225
 1646              	.LVL113:
 112:../mculib3/src/periph/usart_f0.h ****       case BR19200:  BRR = clock/19200 ; break;
 1647              		.loc 15 112 33 view .LVU394
 1648 0054 F6E7     		b	.L94
 1649              	.LVL114:
 1650              	.L85:
 113:../mculib3/src/periph/usart_f0.h ****       case BR28800:  BRR = clock/28800 ; break;
 1651              		.loc 15 113 7 is_stmt 1 view .LVU395
 113:../mculib3/src/periph/usart_f0.h ****       case BR28800:  BRR = clock/28800 ; break;
 1652              		.loc 15 113 22 view .LVU396
 113:../mculib3/src/periph/usart_f0.h ****       case BR28800:  BRR = clock/28800 ; break;
 1653              		.loc 15 113 33 is_stmt 0 view .LVU397
 1654 0056 9621     		movs	r1, #150
 1655              	.LVL115:
 1656              	.L96:
 114:../mculib3/src/periph/usart_f0.h ****       case BR38400:  BRR = clock/38400 ; break;
 1657              		.loc 15 114 33 view .LVU398
 1658 0058 C901     		lsls	r1, r1, #7
 1659 005a F4E7     		b	.L92
 1660              	.LVL116:
 1661              	.L84:
 114:../mculib3/src/periph/usart_f0.h ****       case BR38400:  BRR = clock/38400 ; break;
 1662              		.loc 15 114 7 is_stmt 1 view .LVU399
 114:../mculib3/src/periph/usart_f0.h ****       case BR38400:  BRR = clock/38400 ; break;
 1663              		.loc 15 114 22 view .LVU400
 114:../mculib3/src/periph/usart_f0.h ****       case BR38400:  BRR = clock/38400 ; break;
 1664              		.loc 15 114 33 is_stmt 0 view .LVU401
 1665 005c E121     		movs	r1, #225
 1666              	.LVL117:
 114:../mculib3/src/periph/usart_f0.h ****       case BR38400:  BRR = clock/38400 ; break;
 1667              		.loc 15 114 33 view .LVU402
 1668 005e FBE7     		b	.L96
 1669              	.LVL118:
 1670              	.L83:
 115:../mculib3/src/periph/usart_f0.h ****       case BR57600:  BRR = clock/57600 ; break;
 1671              		.loc 15 115 7 is_stmt 1 view .LVU403
 115:../mculib3/src/periph/usart_f0.h ****       case BR57600:  BRR = clock/57600 ; break;
 1672              		.loc 15 115 22 view .LVU404
ARM GAS  /tmp/ccm4IIvO.s 			page 69


 115:../mculib3/src/periph/usart_f0.h ****       case BR57600:  BRR = clock/57600 ; break;
 1673              		.loc 15 115 33 is_stmt 0 view .LVU405
 1674 0060 9621     		movs	r1, #150
 1675              	.LVL119:
 1676              	.L95:
 116:../mculib3/src/periph/usart_f0.h ****       case BR76800:  BRR = clock/76800 ; break;
 1677              		.loc 15 116 33 view .LVU406
 1678 0062 0902     		lsls	r1, r1, #8
 1679 0064 EFE7     		b	.L92
 1680              	.LVL120:
 1681              	.L82:
 116:../mculib3/src/periph/usart_f0.h ****       case BR76800:  BRR = clock/76800 ; break;
 1682              		.loc 15 116 7 is_stmt 1 view .LVU407
 116:../mculib3/src/periph/usart_f0.h ****       case BR76800:  BRR = clock/76800 ; break;
 1683              		.loc 15 116 22 view .LVU408
 116:../mculib3/src/periph/usart_f0.h ****       case BR76800:  BRR = clock/76800 ; break;
 1684              		.loc 15 116 33 is_stmt 0 view .LVU409
 1685 0066 E121     		movs	r1, #225
 1686              	.LVL121:
 116:../mculib3/src/periph/usart_f0.h ****       case BR76800:  BRR = clock/76800 ; break;
 1687              		.loc 15 116 33 view .LVU410
 1688 0068 FBE7     		b	.L95
 1689              	.LVL122:
 1690              	.L81:
 117:../mculib3/src/periph/usart_f0.h ****       case BR115200: BRR = clock/115200; break;
 1691              		.loc 15 117 7 is_stmt 1 view .LVU411
 117:../mculib3/src/periph/usart_f0.h ****       case BR115200: BRR = clock/115200; break;
 1692              		.loc 15 117 22 view .LVU412
 117:../mculib3/src/periph/usart_f0.h ****       case BR115200: BRR = clock/115200; break;
 1693              		.loc 15 117 33 is_stmt 0 view .LVU413
 1694 006a 9621     		movs	r1, #150
 1695              	.LVL123:
 1696              	.L93:
 118:../mculib3/src/periph/usart_f0.h ****    }
 1697              		.loc 15 118 33 view .LVU414
 1698 006c 4902     		lsls	r1, r1, #9
 1699 006e EAE7     		b	.L92
 1700              	.LVL124:
 1701              	.L79:
 118:../mculib3/src/periph/usart_f0.h ****    }
 1702              		.loc 15 118 7 is_stmt 1 view .LVU415
 118:../mculib3/src/periph/usart_f0.h ****    }
 1703              		.loc 15 118 22 view .LVU416
 118:../mculib3/src/periph/usart_f0.h ****    }
 1704              		.loc 15 118 33 is_stmt 0 view .LVU417
 1705 0070 E121     		movs	r1, #225
 1706              	.LVL125:
 118:../mculib3/src/periph/usart_f0.h ****    }
 1707              		.loc 15 118 33 view .LVU418
 1708 0072 FBE7     		b	.L93
 1709              	.L98:
 1710              		.align	2
 1711              	.L97:
 1712 0074 00100240 		.word	1073876992
 1713 0078 C0C62D00 		.word	3000000
 1714 007c 006CDC02 		.word	48000000
 1715 0080 00366E01 		.word	24000000
ARM GAS  /tmp/ccm4IIvO.s 			page 70


 1716 0084 001BB700 		.word	12000000
 1717              		.cfi_endproc
 1718              	.LFE3794:
 1720              		.section	.text._ZN3mcu3TIM14compare_enableENS0_7ChannelE,"ax",%progbits
 1721              		.align	1
 1722              		.global	_ZN3mcu3TIM14compare_enableENS0_7ChannelE
 1723              		.syntax unified
 1724              		.code	16
 1725              		.thumb_func
 1726              		.fpu softvfp
 1728              	_ZN3mcu3TIM14compare_enableENS0_7ChannelE:
 1729              	.LVL126:
 1730              	.LFB3839:
  86:../mculib3/src/periph/tim_f0_f4.h ****    TIM&     interrupt_enable (uint32_t v)   { *reinterpret_cast<__IO uint32_t*>(&DIER) |=  v; retur
  87:../mculib3/src/periph/tim_f0_f4.h ****    TIM&     interrupt_disable(uint32_t v)   { *reinterpret_cast<__IO uint32_t*>(&DIER) &= ~v; retur
  88:../mculib3/src/periph/tim_f0_f4.h ****    TIM&     compare_enable (Channel);
  89:../mculib3/src/periph/tim_f0_f4.h ****    TIM&     compare_disable(Channel);
  90:../mculib3/src/periph/tim_f0_f4.h ****    TIM&     interrupt_enable (Channel);
  91:../mculib3/src/periph/tim_f0_f4.h ****    bool     is_compare (Channel);
  92:../mculib3/src/periph/tim_f0_f4.h **** #if defined(STM32F0)
  93:../mculib3/src/periph/tim_f0_f4.h ****    TIM&     main_output_enable()            { BDTR.MOE = true;    return *this; }
  94:../mculib3/src/periph/tim_f0_f4.h **** #endif
  95:../mculib3/src/periph/tim_f0_f4.h ****    
  96:../mculib3/src/periph/tim_f0_f4.h ****    bool     is_count()                      { return CR1.CEN; }
  97:../mculib3/src/periph/tim_f0_f4.h ****    uint16_t get_counter()                   { return CNT;     }
  98:../mculib3/src/periph/tim_f0_f4.h **** 
  99:../mculib3/src/periph/tim_f0_f4.h ****    void clear_interrupt_flags() {SR.UIF = false;}
 100:../mculib3/src/periph/tim_f0_f4.h ****    bool update_interrupt() {return SR.UIF;}
 101:../mculib3/src/periph/tim_f0_f4.h **** 
 102:../mculib3/src/periph/tim_f0_f4.h ****    template<Channel> TIM& set (Filter);
 103:../mculib3/src/periph/tim_f0_f4.h ****    template<Channel> TIM& set_trigger();
 104:../mculib3/src/periph/tim_f0_f4.h ****    template<Channel> TIM& set (Polarity);
 105:../mculib3/src/periph/tim_f0_f4.h ****    template<Channel> TIM& set (CompareMode);
 106:../mculib3/src/periph/tim_f0_f4.h ****    template<Channel> TIM& set (SelectionCompareMode);
 107:../mculib3/src/periph/tim_f0_f4.h ****    template<Channel> TIM& preload_enable ();
 108:../mculib3/src/periph/tim_f0_f4.h ****    template<Channel> TIM& preload_disable();
 109:../mculib3/src/periph/tim_f0_f4.h ****    template<Channel> TIM& compareToggle  ();
 110:../mculib3/src/periph/tim_f0_f4.h ****    template<Channel> TIM& compare_enable ();
 111:../mculib3/src/periph/tim_f0_f4.h ****    template<Channel> TIM& compare_disable();
 112:../mculib3/src/periph/tim_f0_f4.h ****    TIM& set_compare (Channel, uint32_t);
 113:../mculib3/src/periph/tim_f0_f4.h ****    template<Channel>  __IO uint32_t& get_compare_reference();
 114:../mculib3/src/periph/tim_f0_f4.h **** 
 115:../mculib3/src/periph/tim_f0_f4.h ****    template<Periph, class Pin_> static constexpr PinMode pin_mode();
 116:../mculib3/src/periph/tim_f0_f4.h ****    template<Periph, class Pin_> static constexpr Channel channel();
 117:../mculib3/src/periph/tim_f0_f4.h ****    template<Channel>            static constexpr EnableMask enable_mask();
 118:../mculib3/src/periph/tim_f0_f4.h **** 
 119:../mculib3/src/periph/tim_f0_f4.h ****    template <Periph tim, class Pin_> static void pin_static_assert();
 120:../mculib3/src/periph/tim_f0_f4.h **** };
 121:../mculib3/src/periph/tim_f0_f4.h **** 
 122:../mculib3/src/periph/tim_f0_f4.h **** 
 123:../mculib3/src/periph/tim_f0_f4.h **** 
 124:../mculib3/src/periph/tim_f0_f4.h **** 
 125:../mculib3/src/periph/tim_f0_f4.h **** 
 126:../mculib3/src/periph/tim_f0_f4.h **** 
 127:../mculib3/src/periph/tim_f0_f4.h **** 
 128:../mculib3/src/periph/tim_f0_f4.h **** 
 129:../mculib3/src/periph/tim_f0_f4.h **** 
ARM GAS  /tmp/ccm4IIvO.s 			page 71


 130:../mculib3/src/periph/tim_f0_f4.h **** 
 131:../mculib3/src/periph/tim_f0_f4.h **** 
 132:../mculib3/src/periph/tim_f0_f4.h **** 
 133:../mculib3/src/periph/tim_f0_f4.h **** 
 134:../mculib3/src/periph/tim_f0_f4.h **** 
 135:../mculib3/src/periph/tim_f0_f4.h **** 
 136:../mculib3/src/periph/tim_f0_f4.h **** 
 137:../mculib3/src/periph/tim_f0_f4.h **** 
 138:../mculib3/src/periph/tim_f0_f4.h **** 
 139:../mculib3/src/periph/tim_f0_f4.h **** 
 140:../mculib3/src/periph/tim_f0_f4.h **** 
 141:../mculib3/src/periph/tim_f0_f4.h **** 
 142:../mculib3/src/periph/tim_f0_f4.h **** 
 143:../mculib3/src/periph/tim_f0_f4.h **** #if not defined(USE_MOCK_TIM)
 144:../mculib3/src/periph/tim_f0_f4.h **** SFINAE(TIM1 , TIM) make_reference() { return *reinterpret_cast<TIM*>(TIM1_BASE);  }
 145:../mculib3/src/periph/tim_f0_f4.h **** SFINAE(TIM3 , TIM) make_reference() { return *reinterpret_cast<TIM*>(TIM3_BASE);  }
 146:../mculib3/src/periph/tim_f0_f4.h **** SFINAE(TIM14, TIM) make_reference() { return *reinterpret_cast<TIM*>(TIM14_BASE); }
 147:../mculib3/src/periph/tim_f0_f4.h **** #if defined(STM32F0)
 148:../mculib3/src/periph/tim_f0_f4.h **** SFINAE(TIM16, TIM) make_reference() { return *reinterpret_cast<TIM*>(TIM16_BASE); }
 149:../mculib3/src/periph/tim_f0_f4.h **** SFINAE(TIM17, TIM) make_reference() { return *reinterpret_cast<TIM*>(TIM17_BASE); }
 150:../mculib3/src/periph/tim_f0_f4.h **** #elif defined(STM32F4)
 151:../mculib3/src/periph/tim_f0_f4.h **** SFINAE(TIM2 , TIM) make_reference() { return *reinterpret_cast<TIM*>(TIM2_BASE);  }
 152:../mculib3/src/periph/tim_f0_f4.h **** SFINAE(TIM4 , TIM) make_reference() { return *reinterpret_cast<TIM*>(TIM4_BASE);  }
 153:../mculib3/src/periph/tim_f0_f4.h **** SFINAE(TIM5 , TIM) make_reference() { return *reinterpret_cast<TIM*>(TIM5_BASE);  }
 154:../mculib3/src/periph/tim_f0_f4.h **** SFINAE(TIM8 , TIM) make_reference() { return *reinterpret_cast<TIM*>(TIM8_BASE);  }
 155:../mculib3/src/periph/tim_f0_f4.h **** #endif
 156:../mculib3/src/periph/tim_f0_f4.h **** #endif
 157:../mculib3/src/periph/tim_f0_f4.h **** 
 158:../mculib3/src/periph/tim_f0_f4.h **** template<Periph p, class Pin_> constexpr PinMode TIM::pin_mode()
 159:../mculib3/src/periph/tim_f0_f4.h **** {
 160:../mculib3/src/periph/tim_f0_f4.h **** #if defined(STM32F0)
 161:../mculib3/src/periph/tim_f0_f4.h ****    if      constexpr (p == Periph::TIM1) {
 162:../mculib3/src/periph/tim_f0_f4.h ****       if      constexpr (std::is_same_v<Pin_,PA6 >) return PinMode::Alternate_2;
 163:../mculib3/src/periph/tim_f0_f4.h ****       else if constexpr (std::is_same_v<Pin_,PA7 >) return PinMode::Alternate_2;
 164:../mculib3/src/periph/tim_f0_f4.h ****       else if constexpr (std::is_same_v<Pin_,PA8 >) return PinMode::Alternate_2;
 165:../mculib3/src/periph/tim_f0_f4.h ****       else if constexpr (std::is_same_v<Pin_,PA9 >) return PinMode::Alternate_2;
 166:../mculib3/src/periph/tim_f0_f4.h ****       else if constexpr (std::is_same_v<Pin_,PA10>) return PinMode::Alternate_2;
 167:../mculib3/src/periph/tim_f0_f4.h ****       else if constexpr (std::is_same_v<Pin_,PA11>) return PinMode::Alternate_2;
 168:../mculib3/src/periph/tim_f0_f4.h ****       else if constexpr (std::is_same_v<Pin_,PA12>) return PinMode::Alternate_2;
 169:../mculib3/src/periph/tim_f0_f4.h ****       else if constexpr (std::is_same_v<Pin_,PB0 >) return PinMode::Alternate_2;
 170:../mculib3/src/periph/tim_f0_f4.h ****       else if constexpr (std::is_same_v<Pin_,PB1 >) return PinMode::Alternate_2;
 171:../mculib3/src/periph/tim_f0_f4.h ****       else if constexpr (std::is_same_v<Pin_,PB12>) return PinMode::Alternate_2;
 172:../mculib3/src/periph/tim_f0_f4.h ****       else if constexpr (std::is_same_v<Pin_,PB13>) return PinMode::Alternate_2;
 173:../mculib3/src/periph/tim_f0_f4.h ****       else if constexpr (std::is_same_v<Pin_,PB14>) return PinMode::Alternate_2;
 174:../mculib3/src/periph/tim_f0_f4.h ****       else if constexpr (std::is_same_v<Pin_,PB15>) return PinMode::Alternate_2;
 175:../mculib3/src/periph/tim_f0_f4.h ****       else return PinMode::Input;
 176:../mculib3/src/periph/tim_f0_f4.h **** 
 177:../mculib3/src/periph/tim_f0_f4.h ****    } else if constexpr (p == Periph::TIM3) {
 178:../mculib3/src/periph/tim_f0_f4.h ****       if      constexpr (std::is_same_v<Pin_,PA6>) return PinMode::Alternate_1;
 179:../mculib3/src/periph/tim_f0_f4.h ****       else if constexpr (std::is_same_v<Pin_,PB4>) return PinMode::Alternate_1;
 180:../mculib3/src/periph/tim_f0_f4.h ****       else if constexpr (std::is_same_v<Pin_,PC6>) return PinMode::Alternate_0;
 181:../mculib3/src/periph/tim_f0_f4.h ****       else if constexpr (std::is_same_v<Pin_,PA7>) return PinMode::Alternate_1;
 182:../mculib3/src/periph/tim_f0_f4.h ****       else if constexpr (std::is_same_v<Pin_,PB5>) return PinMode::Alternate_1;
 183:../mculib3/src/periph/tim_f0_f4.h ****       else if constexpr (std::is_same_v<Pin_,PC7>) return PinMode::Alternate_0;
 184:../mculib3/src/periph/tim_f0_f4.h ****       else if constexpr (std::is_same_v<Pin_,PB0>) return PinMode::Alternate_1;
 185:../mculib3/src/periph/tim_f0_f4.h ****       else if constexpr (std::is_same_v<Pin_,PC8>) return PinMode::Alternate_0;
 186:../mculib3/src/periph/tim_f0_f4.h ****       else if constexpr (std::is_same_v<Pin_,PB1>) return PinMode::Alternate_1;
ARM GAS  /tmp/ccm4IIvO.s 			page 72


 187:../mculib3/src/periph/tim_f0_f4.h ****       else if constexpr (std::is_same_v<Pin_,PC9>) return PinMode::Alternate_0;
 188:../mculib3/src/periph/tim_f0_f4.h ****       else return PinMode::Input;
 189:../mculib3/src/periph/tim_f0_f4.h **** 
 190:../mculib3/src/periph/tim_f0_f4.h ****    } else if constexpr (p == Periph::TIM14) {
 191:../mculib3/src/periph/tim_f0_f4.h ****       if      constexpr (std::is_same_v<Pin_,PA4>) return PinMode::Alternate_4;
 192:../mculib3/src/periph/tim_f0_f4.h ****       else if constexpr (std::is_same_v<Pin_,PA7>) return PinMode::Alternate_4;
 193:../mculib3/src/periph/tim_f0_f4.h ****       else if constexpr (std::is_same_v<Pin_,PB1>) return PinMode::Alternate_0;
 194:../mculib3/src/periph/tim_f0_f4.h ****       else return PinMode::Input;
 195:../mculib3/src/periph/tim_f0_f4.h **** 
 196:../mculib3/src/periph/tim_f0_f4.h ****    } else if constexpr (p == Periph::TIM16) {
 197:../mculib3/src/periph/tim_f0_f4.h ****       if      constexpr (std::is_same_v<Pin_,PA6>) return PinMode::Alternate_5;
 198:../mculib3/src/periph/tim_f0_f4.h ****       else if constexpr (std::is_same_v<Pin_,PB8>) return PinMode::Alternate_2;
 199:../mculib3/src/periph/tim_f0_f4.h ****       else return PinMode::Input;
 200:../mculib3/src/periph/tim_f0_f4.h **** 
 201:../mculib3/src/periph/tim_f0_f4.h ****    } else if constexpr (p == Periph::TIM17) {
 202:../mculib3/src/periph/tim_f0_f4.h ****       if      constexpr (std::is_same_v<Pin_,PA7>) return PinMode::Alternate_5;
 203:../mculib3/src/periph/tim_f0_f4.h ****       else if constexpr (std::is_same_v<Pin_,PB9>) return PinMode::Alternate_2;
 204:../mculib3/src/periph/tim_f0_f4.h ****       else return PinMode::Input;
 205:../mculib3/src/periph/tim_f0_f4.h ****    } else {
 206:../mculib3/src/periph/tim_f0_f4.h ****       return PinMode::Input;
 207:../mculib3/src/periph/tim_f0_f4.h ****    }
 208:../mculib3/src/periph/tim_f0_f4.h **** 
 209:../mculib3/src/periph/tim_f0_f4.h **** #elif defined(STM32F4)
 210:../mculib3/src/periph/tim_f0_f4.h ****    if      constexpr (p == Periph::TIM2) {
 211:../mculib3/src/periph/tim_f0_f4.h ****       if      constexpr (std::is_same_v<Pin_,PA0 >) return PinMode::Alternate_1;
 212:../mculib3/src/periph/tim_f0_f4.h ****       else if constexpr (std::is_same_v<Pin_,PA1 >) return PinMode::Alternate_1;
 213:../mculib3/src/periph/tim_f0_f4.h ****       else if constexpr (std::is_same_v<Pin_,PA2 >) return PinMode::Alternate_1;
 214:../mculib3/src/periph/tim_f0_f4.h ****       else if constexpr (std::is_same_v<Pin_,PA3 >) return PinMode::Alternate_1;
 215:../mculib3/src/periph/tim_f0_f4.h ****       else if constexpr (std::is_same_v<Pin_,PA5 >) return PinMode::Alternate_1;
 216:../mculib3/src/periph/tim_f0_f4.h ****       else if constexpr (std::is_same_v<Pin_,PA15>) return PinMode::Alternate_1;
 217:../mculib3/src/periph/tim_f0_f4.h ****       else if constexpr (std::is_same_v<Pin_,PB3 >) return PinMode::Alternate_1;
 218:../mculib3/src/periph/tim_f0_f4.h ****       else if constexpr (std::is_same_v<Pin_,PB10>) return PinMode::Alternate_1;
 219:../mculib3/src/periph/tim_f0_f4.h ****       else if constexpr (std::is_same_v<Pin_,PB11>) return PinMode::Alternate_1;
 220:../mculib3/src/periph/tim_f0_f4.h ****       else return PinMode::Input;
 221:../mculib3/src/periph/tim_f0_f4.h **** 
 222:../mculib3/src/periph/tim_f0_f4.h ****    } else if constexpr (p == Periph::TIM3) {
 223:../mculib3/src/periph/tim_f0_f4.h ****       if      constexpr (std::is_same_v<Pin_,PA6>) return PinMode::Alternate_2;
 224:../mculib3/src/periph/tim_f0_f4.h ****       else if constexpr (std::is_same_v<Pin_,PA7>) return PinMode::Alternate_2;
 225:../mculib3/src/periph/tim_f0_f4.h ****       else if constexpr (std::is_same_v<Pin_,PB0>) return PinMode::Alternate_2;
 226:../mculib3/src/periph/tim_f0_f4.h ****       else if constexpr (std::is_same_v<Pin_,PB1>) return PinMode::Alternate_2;
 227:../mculib3/src/periph/tim_f0_f4.h ****       else if constexpr (std::is_same_v<Pin_,PB4>) return PinMode::Alternate_2;
 228:../mculib3/src/periph/tim_f0_f4.h ****       else if constexpr (std::is_same_v<Pin_,PB5>) return PinMode::Alternate_2;
 229:../mculib3/src/periph/tim_f0_f4.h ****       else if constexpr (std::is_same_v<Pin_,PC6>) return PinMode::Alternate_2;
 230:../mculib3/src/periph/tim_f0_f4.h ****       else if constexpr (std::is_same_v<Pin_,PC7>) return PinMode::Alternate_2;
 231:../mculib3/src/periph/tim_f0_f4.h ****       else if constexpr (std::is_same_v<Pin_,PC8>) return PinMode::Alternate_2;
 232:../mculib3/src/periph/tim_f0_f4.h ****       else if constexpr (std::is_same_v<Pin_,PC9>) return PinMode::Alternate_2;
 233:../mculib3/src/periph/tim_f0_f4.h ****       else if constexpr (std::is_same_v<Pin_,PD2>) return PinMode::Alternate_2;
 234:../mculib3/src/periph/tim_f0_f4.h ****       else return PinMode::Input;
 235:../mculib3/src/periph/tim_f0_f4.h **** 
 236:../mculib3/src/periph/tim_f0_f4.h ****    } else if constexpr (p == Periph::TIM4) {
 237:../mculib3/src/periph/tim_f0_f4.h ****       if      constexpr (std::is_same_v<Pin_,PD12>) return PinMode::Alternate_2;
 238:../mculib3/src/periph/tim_f0_f4.h ****       else if constexpr (std::is_same_v<Pin_,PD13>) return PinMode::Alternate_2;
 239:../mculib3/src/periph/tim_f0_f4.h ****       else if constexpr (std::is_same_v<Pin_,PD14>) return PinMode::Alternate_2;
 240:../mculib3/src/periph/tim_f0_f4.h ****       else if constexpr (std::is_same_v<Pin_,PD15>) return PinMode::Alternate_2;
 241:../mculib3/src/periph/tim_f0_f4.h **** 
 242:../mculib3/src/periph/tim_f0_f4.h ****    } else if constexpr (p == Periph::TIM5) {
 243:../mculib3/src/periph/tim_f0_f4.h ****       if      constexpr (std::is_same_v<Pin_,PA0>) return PinMode::Alternate_2;
ARM GAS  /tmp/ccm4IIvO.s 			page 73


 244:../mculib3/src/periph/tim_f0_f4.h ****       else if constexpr (std::is_same_v<Pin_,PA1>) return PinMode::Alternate_2;
 245:../mculib3/src/periph/tim_f0_f4.h ****       else if constexpr (std::is_same_v<Pin_,PA2>) return PinMode::Alternate_2;
 246:../mculib3/src/periph/tim_f0_f4.h ****       else if constexpr (std::is_same_v<Pin_,PA3>) return PinMode::Alternate_2;
 247:../mculib3/src/periph/tim_f0_f4.h ****    
 248:../mculib3/src/periph/tim_f0_f4.h ****    } else if constexpr (p == Periph::TIM8) {
 249:../mculib3/src/periph/tim_f0_f4.h ****       if      constexpr (std::is_same_v<Pin_,PC6>) return PinMode::Alternate_3;
 250:../mculib3/src/periph/tim_f0_f4.h ****       else if constexpr (std::is_same_v<Pin_,PC7>) return PinMode::Alternate_3;
 251:../mculib3/src/periph/tim_f0_f4.h ****       else if constexpr (std::is_same_v<Pin_,PC8>) return PinMode::Alternate_3;
 252:../mculib3/src/periph/tim_f0_f4.h ****       else if constexpr (std::is_same_v<Pin_,PC9>) return PinMode::Alternate_3;
 253:../mculib3/src/periph/tim_f0_f4.h ****    
 254:../mculib3/src/periph/tim_f0_f4.h ****    } else {
 255:../mculib3/src/periph/tim_f0_f4.h ****       return PinMode::Input;
 256:../mculib3/src/periph/tim_f0_f4.h ****    }
 257:../mculib3/src/periph/tim_f0_f4.h **** #endif
 258:../mculib3/src/periph/tim_f0_f4.h **** }
 259:../mculib3/src/periph/tim_f0_f4.h **** 
 260:../mculib3/src/periph/tim_f0_f4.h **** template<TIM::Channel c> constexpr TIM::EnableMask TIM::enable_mask()
 261:../mculib3/src/periph/tim_f0_f4.h **** {
 262:../mculib3/src/periph/tim_f0_f4.h ****    if      constexpr (c == Channel::_1) return TIM::EnableMask::ch1;
 263:../mculib3/src/periph/tim_f0_f4.h ****    else if constexpr (c == Channel::_2) return TIM::EnableMask::ch2;
 264:../mculib3/src/periph/tim_f0_f4.h ****    else if constexpr (c == Channel::_3) return TIM::EnableMask::ch3;
 265:../mculib3/src/periph/tim_f0_f4.h ****    else if constexpr (c == Channel::_4) return TIM::EnableMask::ch4;
 266:../mculib3/src/periph/tim_f0_f4.h **** }
